
ctp6_fe_uart_ipbus.elf:     file format elf32-microblazeel


Disassembly of section .vectors.reset:

00000000 <_start>:
   0:	b0000000 	imm	0
   4:	b8080050 	brai	80	// 50 <_start1>

Disassembly of section .vectors.sw_exception:

00000008 <_vector_sw_exception>:
   8:	b0000000 	imm	0
   c:	b8080254 	brai	596	// 254 <_exception_handler>

Disassembly of section .vectors.interrupt:

00000010 <_vector_interrupt>:
  10:	b0000000 	imm	0
  14:	b808035c 	brai	860	// 35c <__interrupt_handler>

Disassembly of section .vectors.hw_exception:

00000020 <_vector_hw_exception>:
  20:	b0000000 	imm	0
  24:	b808026c 	brai	620	// 26c <_hw_exception_handler>

Disassembly of section .text:

00000050 <_start1>:
      50:	b0000000 	imm	0
      54:	31a0ea70 	addik	r13, r0, -5520	// ea70 <_SDA_BASE_>
      58:	b0000000 	imm	0
      5c:	3040e350 	addik	r2, r0, -7344	// e350 <_SDA2_BASE_>
      60:	b0000000 	imm	0
      64:	3020f4b0 	addik	r1, r0, -2896
      68:	b0000000 	imm	0
      6c:	b9f40138 	brlid	r15, 312	// 1a4 <_crtinit>
      70:	80000000 	or	r0, r0, r0
      74:	b0000000 	imm	0
      78:	b9f41210 	brlid	r15, 4624	// 1288 <exit>
      7c:	30a30000 	addik	r5, r3, 0

00000080 <_exit>:
      80:	b8000000 	bri	0	// 80 <_exit>

00000084 <__do_global_dtors_aux>:
      84:	b0000000 	imm	0
      88:	e060ea70 	lbui	r3, r0, -5520	// ea70 <_SDA_BASE_>
      8c:	3021ffe0 	addik	r1, r1, -32
      90:	f9e10000 	swi	r15, r1, 0
      94:	be23009c 	bneid	r3, 156		// 130
      98:	fa61001c 	swi	r19, r1, 28
      9c:	b0000000 	imm	0
      a0:	3080d5b0 	addik	r4, r0, -10832	// d5b0 <__CTOR_END__>
      a4:	b0000000 	imm	0
      a8:	30a0d5b4 	addik	r5, r0, -10828	// d5b4 <__DTOR_END__>
      ac:	b0000000 	imm	0
      b0:	e860ea74 	lwi	r3, r0, -5516	// ea74 <dtor_idx.2337>
      b4:	14842800 	rsubk	r4, r4, r5
      b8:	12602000 	addk	r19, r0, r4
      bc:	92640001 	sra	r19, r4
      c0:	92730001 	sra	r19, r19
      c4:	3273ffff 	addik	r19, r19, -1
      c8:	14931803 	cmpu	r4, r19, r3
      cc:	bea4003c 	bgeid	r4, 60		// 108
      d0:	30630001 	addik	r3, r3, 1
      d4:	60830004 	muli	r4, r3, 4
      d8:	b0000000 	imm	0
      dc:	3084d5b0 	addik	r4, r4, -10832
      e0:	e8840000 	lwi	r4, r4, 0
      e4:	b0000000 	imm	0
      e8:	f860ea74 	swi	r3, r0, -5516	// ea74 <dtor_idx.2337>
      ec:	99fc2000 	brald	r15, r4
      f0:	80000000 	or	r0, r0, r0
      f4:	b0000000 	imm	0
      f8:	e860ea74 	lwi	r3, r0, -5516	// ea74 <dtor_idx.2337>
      fc:	14931803 	cmpu	r4, r19, r3
     100:	be44ffd4 	bltid	r4, -44		// d4
     104:	30630001 	addik	r3, r3, 1
     108:	b0000000 	imm	0
     10c:	30600000 	addik	r3, r0, 0
     110:	bc030014 	beqi	r3, 20		// 124
     114:	b0000000 	imm	0
     118:	30a0e9ec 	addik	r5, r0, -5652	// e9ec <__data_end>
     11c:	99fc1800 	brald	r15, r3
     120:	80000000 	or	r0, r0, r0
     124:	30600001 	addik	r3, r0, 1
     128:	b0000000 	imm	0
     12c:	f060ea70 	sbi	r3, r0, -5520	// ea70 <_SDA_BASE_>
     130:	e9e10000 	lwi	r15, r1, 0
     134:	ea61001c 	lwi	r19, r1, 28
     138:	b60f0008 	rtsd	r15, 8
     13c:	30210020 	addik	r1, r1, 32

00000140 <frame_dummy>:
     140:	b0000000 	imm	0
     144:	30600000 	addik	r3, r0, 0
     148:	3021ffe4 	addik	r1, r1, -28
     14c:	be030020 	beqid	r3, 32		// 16c
     150:	f9e10000 	swi	r15, r1, 0
     154:	b0000000 	imm	0
     158:	30a0e9ec 	addik	r5, r0, -5652	// e9ec <__data_end>
     15c:	b0000000 	imm	0
     160:	30c0ea78 	addik	r6, r0, -5512	// ea78 <object.2347>
     164:	99fc1800 	brald	r15, r3
     168:	80000000 	or	r0, r0, r0
     16c:	b0000000 	imm	0
     170:	e860ea68 	lwi	r3, r0, -5528	// ea68 <__JCR_END__>
     174:	be030028 	beqid	r3, 40		// 19c
     178:	e9e10000 	lwi	r15, r1, 0
     17c:	b0000000 	imm	0
     180:	30600000 	addik	r3, r0, 0
     184:	bc030018 	beqi	r3, 24		// 19c
     188:	b0000000 	imm	0
     18c:	30a0ea68 	addik	r5, r0, -5528	// ea68 <__JCR_END__>
     190:	99fc1800 	brald	r15, r3
     194:	80000000 	or	r0, r0, r0
     198:	e9e10000 	lwi	r15, r1, 0
     19c:	b60f0008 	rtsd	r15, 8
     1a0:	3021001c 	addik	r1, r1, 28

000001a4 <_crtinit>:
     1a4:	2021ffec 	addi	r1, r1, -20
     1a8:	f9e10000 	swi	r15, r1, 0
     1ac:	b0000000 	imm	0
     1b0:	20c0ea70 	addi	r6, r0, -5520	// ea70 <_SDA_BASE_>
     1b4:	b0000000 	imm	0
     1b8:	20e0ea70 	addi	r7, r0, -5520	// ea70 <_SDA_BASE_>
     1bc:	06463800 	rsub	r18, r6, r7
     1c0:	bc720014 	blei	r18, 20		// 1d4
     1c4:	f8060000 	swi	r0, r6, 0
     1c8:	20c60004 	addi	r6, r6, 4
     1cc:	06463800 	rsub	r18, r6, r7
     1d0:	bc92fff4 	bgti	r18, -12		// 1c4
     1d4:	b0000000 	imm	0
     1d8:	20c0ea70 	addi	r6, r0, -5520	// ea70 <_SDA_BASE_>
     1dc:	b0000000 	imm	0
     1e0:	20e0ecc0 	addi	r7, r0, -4928	// ecc0 <__bss_end>
     1e4:	06463800 	rsub	r18, r6, r7
     1e8:	bc720014 	blei	r18, 20		// 1fc
     1ec:	f8060000 	swi	r0, r6, 0
     1f0:	20c60004 	addi	r6, r6, 4
     1f4:	06463800 	rsub	r18, r6, r7
     1f8:	bc92fff4 	bgti	r18, -12		// 1ec
     1fc:	b0000000 	imm	0
     200:	b9f40064 	brlid	r15, 100	// 264 <_program_init>
     204:	80000000 	or	r0, r0, r0
     208:	b0000000 	imm	0
     20c:	b9f4d340 	brlid	r15, -11456	// d54c <__init>
     210:	80000000 	or	r0, r0, r0
     214:	20c00000 	addi	r6, r0, 0
     218:	20e00000 	addi	r7, r0, 0
     21c:	b0000000 	imm	0
     220:	b9f4d064 	brlid	r15, -12188	// d284 <main>
     224:	20a00000 	addi	r5, r0, 0
     228:	32630000 	addik	r19, r3, 0
     22c:	b0000000 	imm	0
     230:	b9f4d358 	brlid	r15, -11432	// d588 <__fini>
     234:	80000000 	or	r0, r0, r0
     238:	b0000000 	imm	0
     23c:	b9f40020 	brlid	r15, 32	// 25c <_program_clean>
     240:	80000000 	or	r0, r0, r0
     244:	c9e10000 	lw	r15, r1, r0
     248:	30730000 	addik	r3, r19, 0
     24c:	b60f0008 	rtsd	r15, 8
     250:	20210014 	addi	r1, r1, 20

00000254 <_exception_handler>:
     254:	b6110000 	rtsd	r17, 0
     258:	80000000 	or	r0, r0, r0

0000025c <_program_clean>:
     25c:	b60f0008 	rtsd	r15, 8
     260:	80000000 	or	r0, r0, r0

00000264 <_program_init>:
     264:	b60f0008 	rtsd	r15, 8
     268:	80000000 	or	r0, r0, r0

0000026c <_hw_exception_handler>:
	bri	0;					/* Halt here if stack protection violation */
ex_handler_not_sp_violation:
	lwi	r3, r0, mb_sp_save_r3;			/* Restore temporary register              */
#endif /* defined(XPAR_MICROBLAZE_USE_STACK_PROTECTION) && (XPAR_MICROBLAZE_USE_STACK_PROTECTION == 1) */

        addik   r1, r1, -(EX_HANDLER_STACK_SIZ);        /* Create stack frame */
     26c:	3021ffac 	addik	r1, r1, -84
        PUSH_REG(3);              
     270:	f8610010 	swi	r3, r1, 16
        PUSH_REG(4);              
     274:	f8810014 	swi	r4, r1, 20
        PUSH_REG(5);              
     278:	f8a10018 	swi	r5, r1, 24
        PUSH_REG(6);
     27c:	f8c1001c 	swi	r6, r1, 28
#ifdef MICROBLAZE_CAN_HANDLE_EXCEPTIONS_IN_DELAY_SLOTS
        mfs     r6, resr;
     280:	94c08005 	mfs	r6, resr
        andi    r6, r6, ESR_DS_MASK;
     284:	a4c61000 	andi	r6, r6, 4096
        beqi    r6, ex_handler_no_ds;
     288:	bc060008 	beqi	r6, 8	// 290 <ex_handler_no_ds>
        mfs     r17, rbtr;
     28c:	9620800b 	mfs	r17, rbtr

00000290 <ex_handler_no_ds>:
ex_handler_no_ds:       
#endif
        PUSH_R17;    
     290:	fa210000 	swi	r17, r1, 0
        PUSH_MSR_AND_ENABLE_EXC;                        /* Exceptions enabled here. This will allow nested exceptions */
     294:	94a08001 	mfs	r5, rmsr
     298:	f8a10050 	swi	r5, r1, 80
     29c:	a0a50100 	ori	r5, r5, 256
     2a0:	9405c001 	mts	rmsr, r5
                
        mfs     r3, resr;    
     2a4:	94608005 	mfs	r3, resr
        andi    r5, r3, ESR_EXC_MASK;                   /* Extract ESR[EXC]                     */
     2a8:	a4a3001f 	andi	r5, r3, 31

000002ac <handle_other_ex>:
        xori   r6, r5, 6;                               /* 00110 = FPU exception */
        beqi   r6, handle_fp_ex;                        /* Go and decode the FP exception */
#endif  /* defined (MICROBLAZE_FP_EXCEPTION_ENABLED) && defined (MICROBLAZE_FP_EXCEPTION_DECODE) */

handle_other_ex:                                        /* Handle Other exceptions here         */        
        ori     r6, r0, 20; 
     2ac:	a0c00014 	ori	r6, r0, 20
        cmp     r6, r5, r6;                             /* >= 20 are exceptions we do not handle. */
     2b0:	14c53001 	cmp	r6, r5, r6
        blei    r6, ex_handler_unhandled;
     2b4:	bc6600a4 	blei	r6, 164	// 358 <ex_handler_unhandled>

        ori     r6, r0, 7;
     2b8:	a0c00007 	ori	r6, r0, 7
        cmp     r6, r5, r6;                             /* Convert MMU exception indices into an ordinal of 7 */
     2bc:	14c53001 	cmp	r6, r5, r6
        bgti    r6, handle_other_ex_tail;
     2c0:	bc860008 	bgti	r6, 8	// 2c8 <handle_other_ex_tail>
        ori     r5, r0, 0x7; 
     2c4:	a0a00007 	ori	r5, r0, 7

000002c8 <handle_other_ex_tail>:
                
handle_other_ex_tail:       
        PUSH_REG(7);                                    /* Save other volatiles before we make procedure calls below   */
     2c8:	f8e10020 	swi	r7, r1, 32
        PUSH_REG(8);             
     2cc:	f9010024 	swi	r8, r1, 36
        PUSH_REG(9);              
     2d0:	f9210028 	swi	r9, r1, 40
        PUSH_REG(10);             
     2d4:	f941002c 	swi	r10, r1, 44
        PUSH_REG(11);             
     2d8:	f9610030 	swi	r11, r1, 48
        PUSH_REG(12);
     2dc:	f9810034 	swi	r12, r1, 52
        PUSH_REG(15);
     2e0:	f9e10040 	swi	r15, r1, 64
        PUSH_REG(18);        
     2e4:	fa41004c 	swi	r18, r1, 76
     2e8:	b0000000 	imm	0

        la      r4, r0, MB_ExceptionVectorTable;        /* Load the Exception vector table base address         */
     2ec:	3080e358 	addik	r4, r0, -7336	// e358 <MB_ExceptionVectorTable>
        addk    r7, r5, r5;                             /* Calculate exception vector offset = r5 * 8           */
     2f0:	10e52800 	addk	r7, r5, r5
        addk    r7, r7, r7;         
     2f4:	10e73800 	addk	r7, r7, r7
        addk    r7, r7, r7;
     2f8:	10e73800 	addk	r7, r7, r7
        addk    r7, r7, r4;                             /* Get pointer to exception vector               */
     2fc:	10e72000 	addk	r7, r7, r4
        lwi     r5, r7, 4;                              /* Load argument to exception handler from table */
     300:	e8a70004 	lwi	r5, r7, 4
        lw      r7, r7, r0;                             /* Load vector itself here                       */
     304:	c8e70000 	lw	r7, r7, r0

        brald   r15, r7;                                /* Branch to handler                             */
     308:	99fc3800 	brald	r15, r7
        nop;
     30c:	80000000 	or	r0, r0, r0
        
        POP_REG(7);                                     /* Restore other volatiles */
     310:	e8e10020 	lwi	r7, r1, 32
        POP_REG(8);              
     314:	e9010024 	lwi	r8, r1, 36
        POP_REG(9);               
     318:	e9210028 	lwi	r9, r1, 40
        POP_REG(10);              
     31c:	e941002c 	lwi	r10, r1, 44
        POP_REG(11);              
     320:	e9610030 	lwi	r11, r1, 48
        POP_REG(12);
     324:	e9810034 	lwi	r12, r1, 52
        POP_REG(15);
     328:	e9e10040 	lwi	r15, r1, 64
        POP_REG(18);        
     32c:	ea41004c 	lwi	r18, r1, 76

        bri     ex_handler_done;                        /* Complete exception handling       */        
     330:	b8000004 	bri	4	// 334 <ex_handler_done>

00000334 <ex_handler_done>:
fp_ex_unhandled:    
        bri     0; 
#endif  /* defined (MICROBLAZE_FP_EXCEPTION_ENABLED) && defined (MICROBLAZE_FP_EXCEPTION_DECODE) */
                     
ex_handler_done:
        POP_R17;
     334:	ea210000 	lwi	r17, r1, 0
        POP_MSR;
     338:	e8a10050 	lwi	r5, r1, 80
     33c:	9405c001 	mts	rmsr, r5
        POP_REG(3);               
     340:	e8610010 	lwi	r3, r1, 16
        POP_REG(4);               
     344:	e8810014 	lwi	r4, r1, 20
        POP_REG(5);               
     348:	e8a10018 	lwi	r5, r1, 24
        POP_REG(6); 
     34c:	e8c1001c 	lwi	r6, r1, 28

        rted    r17, 0
     350:	b6910000 	rted	r17, 0
        addik   r1, r1, (EX_HANDLER_STACK_SIZ);         /* Restore stack frame  */        
     354:	30210054 	addik	r1, r1, 84

00000358 <ex_handler_unhandled>:
ex_handler_unhandled:   
        bri 0                                           /* UNHANDLED. TRAP HERE */                                                 
     358:	b8000000 	bri	0	// 358 <ex_handler_unhandled>

0000035c <__interrupt_handler>:
*
* None.
*
******************************************************************************/
void __interrupt_handler(void)
{
     35c:	3021ffac 	addik	r1, r1, -84
     360:	f9e10000 	swi	r15, r1, 0
     364:	f8210020 	swi	r1, r1, 32
     368:	f8610024 	swi	r3, r1, 36
     36c:	f8810028 	swi	r4, r1, 40
     370:	f8a1002c 	swi	r5, r1, 44
     374:	f8c10030 	swi	r6, r1, 48
     378:	f8e10034 	swi	r7, r1, 52
     37c:	f9010038 	swi	r8, r1, 56
     380:	f921003c 	swi	r9, r1, 60
     384:	f9410040 	swi	r10, r1, 64
	/* The compiler saves all volatiles and the MSR */
	MB_InterruptVectorTable.Handler(MB_InterruptVectorTable.CallBackRef);
     388:	b0000000 	imm	0
     38c:	3060e398 	addik	r3, r0, -7272	// e398 <MB_InterruptVectorTable>
*
* None.
*
******************************************************************************/
void __interrupt_handler(void)
{
     390:	f9610044 	swi	r11, r1, 68
     394:	f9810048 	swi	r12, r1, 72
     398:	fa21004c 	swi	r17, r1, 76
     39c:	95608001 	mfs	r11, rmsr
	/* The compiler saves all volatiles and the MSR */
	MB_InterruptVectorTable.Handler(MB_InterruptVectorTable.CallBackRef);
     3a0:	e8830000 	lwi	r4, r3, 0
     3a4:	e8a30004 	lwi	r5, r3, 4
*
* None.
*
******************************************************************************/
void __interrupt_handler(void)
{
     3a8:	fa410050 	swi	r18, r1, 80
     3ac:	f961001c 	swi	r11, r1, 28
	/* The compiler saves all volatiles and the MSR */
	MB_InterruptVectorTable.Handler(MB_InterruptVectorTable.CallBackRef);
     3b0:	99fc2000 	brald	r15, r4
     3b4:	80000000 	or	r0, r0, r0
	/* The compiler restores all volatiles and MSR, and returns from interrupt */
}
     3b8:	e9e10000 	lwi	r15, r1, 0
     3bc:	e961001c 	lwi	r11, r1, 28
     3c0:	e8210020 	lwi	r1, r1, 32
     3c4:	940bc001 	mts	rmsr, r11
     3c8:	e8610024 	lwi	r3, r1, 36
     3cc:	e8810028 	lwi	r4, r1, 40
     3d0:	e8a1002c 	lwi	r5, r1, 44
     3d4:	e8c10030 	lwi	r6, r1, 48
     3d8:	e8e10034 	lwi	r7, r1, 52
     3dc:	e9010038 	lwi	r8, r1, 56
     3e0:	e921003c 	lwi	r9, r1, 60
     3e4:	e9410040 	lwi	r10, r1, 64
     3e8:	e9610044 	lwi	r11, r1, 68
     3ec:	e9810048 	lwi	r12, r1, 72
     3f0:	ea21004c 	lwi	r17, r1, 76
     3f4:	ea410050 	lwi	r18, r1, 80
     3f8:	b62e0000 	rtid	r14, 0
     3fc:	30210054 	addik	r1, r1, 84

00000400 <microblaze_register_handler>:
* None.
*
****************************************************************************/
void microblaze_register_handler(XInterruptHandler Handler, void *DataPtr)
{
   MB_InterruptVectorTable.Handler = Handler;
     400:	b0000000 	imm	0
     404:	3060e398 	addik	r3, r0, -7272	// e398 <MB_InterruptVectorTable>
     408:	f8a30000 	swi	r5, r3, 0
   MB_InterruptVectorTable.CallBackRef = DataPtr;
}
     40c:	b60f0008 	rtsd	r15, 8
     410:	f8c30004 	swi	r6, r3, 4

00000414 <XIntc_DeviceInterruptHandler>:
* for the interrupt controller. XPAR_INTC_MAX_NUM_INTR_INPUTS specifies the
* highest numbered interrupt input signal that is used.
*
******************************************************************************/
void XIntc_DeviceInterruptHandler(void *DeviceId)
{
     414:	3021ffd0 	addik	r1, r1, -48
	int IntrNumber;
	XIntc_Config *CfgPtr;
	u32 Imr;

	/* Get the configuration data using the device ID */
	CfgPtr = &XIntc_ConfigTable[(u32) DeviceId];
     418:	60a50040 	muli	r5, r5, 64
* for the interrupt controller. XPAR_INTC_MAX_NUM_INTR_INPUTS specifies the
* highest numbered interrupt input signal that is used.
*
******************************************************************************/
void XIntc_DeviceInterruptHandler(void *DeviceId)
{
     41c:	fa61001c 	swi	r19, r1, 28
     420:	f9e10000 	swi	r15, r1, 0
     424:	fac10020 	swi	r22, r1, 32
     428:	fae10024 	swi	r23, r1, 36
     42c:	fb010028 	swi	r24, r1, 40
     430:	fb21002c 	swi	r25, r1, 44
	int IntrNumber;
	XIntc_Config *CfgPtr;
	u32 Imr;

	/* Get the configuration data using the device ID */
	CfgPtr = &XIntc_ConfigTable[(u32) DeviceId];
     434:	b0000000 	imm	0
     438:	3265e3a8 	addik	r19, r5, -7256

	/* Get the interrupts that are waiting to be serviced */
	IntrStatus = XIntc_GetIntrStatus(CfgPtr->BaseAddress);
     43c:	e8730004 	lwi	r3, r19, 4

	/* Mask the Fast Interrupts */
	if (CfgPtr->FastIntr == TRUE) {
     440:	e893000c 	lwi	r4, r19, 12

	/* Get the configuration data using the device ID */
	CfgPtr = &XIntc_ConfigTable[(u32) DeviceId];

	/* Get the interrupts that are waiting to be serviced */
	IntrStatus = XIntc_GetIntrStatus(CfgPtr->BaseAddress);
     444:	e8a30000 	lwi	r5, r3, 0
     448:	eac30008 	lwi	r22, r3, 8

	/* Mask the Fast Interrupts */
	if (CfgPtr->FastIntr == TRUE) {
     44c:	a8840001 	xori	r4, r4, 1
     450:	be0400ac 	beqid	r4, 172		// 4fc
     454:	86d62800 	and	r22, r22, r5
* for the interrupt controller. XPAR_INTC_MAX_NUM_INTR_INPUTS specifies the
* highest numbered interrupt input signal that is used.
*
******************************************************************************/
void XIntc_DeviceInterruptHandler(void *DeviceId)
{
     458:	33000005 	addik	r24, r0, 5
     45c:	13200000 	addk	r25, r0, r0
     460:	32e00001 	addik	r23, r0, 1

			/* The interrupt is active and enabled, call the
			 * interrupt handler that was setup with the specified
			 * parameter
			 */
			TablePtr = &(CfgPtr->HandlerTable[IntrNumber]);
     464:	30990003 	addik	r4, r25, 3
     468:	60840008 	muli	r4, r4, 8
	 * bit in the register from LSB to MSB which corresponds to an interrupt
	 * intput signal
	 */
	for (IntrNumber = 0; IntrNumber < XPAR_INTC_MAX_NUM_INTR_INPUTS;
	     IntrNumber++) {
		if (IntrStatus & 1) {
     46c:	a4b60001 	andi	r5, r22, 1

			/* The interrupt is active and enabled, call the
			 * interrupt handler that was setup with the specified
			 * parameter
			 */
			TablePtr = &(CfgPtr->HandlerTable[IntrNumber]);
     470:	10d32000 	addk	r6, r19, r4
			}
		}

		/* Move to the next interrupt to check */
		IntrMask <<= 1;
		IntrStatus >>= 1;
     474:	92d60041 	srl	r22, r22
	 * bit in the register from LSB to MSB which corresponds to an interrupt
	 * intput signal
	 */
	for (IntrNumber = 0; IntrNumber < XPAR_INTC_MAX_NUM_INTR_INPUTS;
	     IntrNumber++) {
		if (IntrStatus & 1) {
     478:	be050054 	beqid	r5, 84		// 4cc
     47c:	3318ffff 	addik	r24, r24, -1
			XIntc_VectorTableEntry *TablePtr;

			/* If the interrupt has been setup to acknowledge it
			 * before servicing the interrupt, then ack it
			 */
			if (CfgPtr->AckBeforeService & IntrMask) {
     480:	e8b30008 	lwi	r5, r19, 8
     484:	84b72800 	and	r5, r23, r5
     488:	bc050008 	beqi	r5, 8		// 490
				XIntc_AckIntr(CfgPtr->BaseAddress, IntrMask);
     48c:	fae3000c 	swi	r23, r3, 12
			/* The interrupt is active and enabled, call the
			 * interrupt handler that was setup with the specified
			 * parameter
			 */
			TablePtr = &(CfgPtr->HandlerTable[IntrNumber]);
			TablePtr->Handler(TablePtr->CallBackRef);
     490:	c8649800 	lw	r3, r4, r19
     494:	99fc1800 	brald	r15, r3
     498:	e8a60004 	lwi	r5, r6, 4

			/* If the interrupt has been setup to acknowledge it
			 * after it has been serviced then ack it
			 */
			if ((CfgPtr->AckBeforeService & IntrMask) == 0) {
     49c:	e8730008 	lwi	r3, r19, 8
     4a0:	84771800 	and	r3, r23, r3
     4a4:	bc23000c 	bnei	r3, 12		// 4b0
				XIntc_AckIntr(CfgPtr->BaseAddress, IntrMask);
     4a8:	e8730004 	lwi	r3, r19, 4
     4ac:	fae3000c 	swi	r23, r3, 12

			/*
			 * Read the ISR again to handle architectures with posted write
			 * bus access issues.
			 */
			 XIntc_GetIntrStatus(CfgPtr->BaseAddress);
     4b0:	e8730004 	lwi	r3, r19, 4
			/*
			 * If only the highest priority interrupt is to be
			 * serviced, exit loop and return after servicing
			 * the interrupt
			 */
			if (CfgPtr->Options == XIN_SVC_SGL_ISR_OPTION) {
     4b4:	e8930014 	lwi	r4, r19, 20

			/*
			 * Read the ISR again to handle architectures with posted write
			 * bus access issues.
			 */
			 XIntc_GetIntrStatus(CfgPtr->BaseAddress);
     4b8:	e8a30000 	lwi	r5, r3, 0
     4bc:	e8a30008 	lwi	r5, r3, 8
			/*
			 * If only the highest priority interrupt is to be
			 * serviced, exit loop and return after servicing
			 * the interrupt
			 */
			if (CfgPtr->Options == XIN_SVC_SGL_ISR_OPTION) {
     4c0:	a8840001 	xori	r4, r4, 1
     4c4:	be04001c 	beqid	r4, 28		// 4e0
     4c8:	e9e10000 	lwi	r15, r1, 0
		IntrStatus >>= 1;

		/* If there are no other bits set indicating that all interrupts
		 * have been serviced, then exit the loop
		 */
		if (IntrStatus == 0) {
     4cc:	be160010 	beqid	r22, 16		// 4dc
     4d0:	12f7b800 	addk	r23, r23, r23
	}
	/* Service each interrupt that is active and enabled by checking each
	 * bit in the register from LSB to MSB which corresponds to an interrupt
	 * intput signal
	 */
	for (IntrNumber = 0; IntrNumber < XPAR_INTC_MAX_NUM_INTR_INPUTS;
     4d4:	be38ff90 	bneid	r24, -112		// 464
     4d8:	33390001 	addik	r25, r25, 1
		 */
		if (IntrStatus == 0) {
			break;
		}
	}
}
     4dc:	e9e10000 	lwi	r15, r1, 0
     4e0:	ea61001c 	lwi	r19, r1, 28
     4e4:	eac10020 	lwi	r22, r1, 32
     4e8:	eae10024 	lwi	r23, r1, 36
     4ec:	eb010028 	lwi	r24, r1, 40
     4f0:	eb21002c 	lwi	r25, r1, 44
     4f4:	b60f0008 	rtsd	r15, 8
     4f8:	30210030 	addik	r1, r1, 48
	/* Get the interrupts that are waiting to be serviced */
	IntrStatus = XIntc_GetIntrStatus(CfgPtr->BaseAddress);

	/* Mask the Fast Interrupts */
	if (CfgPtr->FastIntr == TRUE) {
		Imr = XIntc_In32(CfgPtr->BaseAddress + XIN_IMR_OFFSET);
     4fc:	e8830020 	lwi	r4, r3, 32
		IntrStatus &=  ~Imr;
     500:	a884ffff 	xori	r4, r4, -1
     504:	b810ff54 	brid	-172		// 458
     508:	86d62000 	and	r22, r22, r4

0000050c <XIntc_LowLevelInterruptHandler>:
* to be included in the driver compilation.
*
******************************************************************************/
#ifdef XPAR_INTC_SINGLE_DEVICE_ID
void XIntc_LowLevelInterruptHandler(void)
{
     50c:	3021ffe4 	addik	r1, r1, -28
     510:	f9e10000 	swi	r15, r1, 0
	 * A level of indirection here because the interrupt handler used with
	 * the driver interface given in this file needs to remain void - no
	 * arguments.  So we need the globally defined device ID of THE
	 * interrupt controller.
	 */
	XIntc_DeviceInterruptHandler((void *) XPAR_INTC_SINGLE_DEVICE_ID);
     514:	b9f4ff00 	brlid	r15, -256	// 414 <XIntc_DeviceInterruptHandler>
     518:	10a00000 	addk	r5, r0, r0
}
     51c:	e9e10000 	lwi	r15, r1, 0
     520:	b60f0008 	rtsd	r15, 8
     524:	3021001c 	addik	r1, r1, 28

00000528 <XIntc_SetIntrSvcOption>:
{
	XIntc_Config *CfgPtr = NULL;
	int Index;

	for (Index = 0; Index < XPAR_XINTC_NUM_INSTANCES; Index++) {
		if (XIntc_ConfigTable[Index].BaseAddress == BaseAddress) {
     528:	b0000000 	imm	0
     52c:	e860e3ac 	lwi	r3, r0, -7252
     530:	88a51800 	xor	r5, r5, r3
     534:	bc05000c 	beqi	r5, 12		// 540
     538:	b60f0008 	rtsd	r15, 8
     53c:	80000000 	or	r0, r0, r0
{
	XIntc_Config *CfgPtr;

	CfgPtr = LookupConfigByBaseAddress(BaseAddress);
	if (CfgPtr != NULL) {
		CfgPtr->Options = Option;
     540:	b0000000 	imm	0
     544:	3060e3ac 	addik	r3, r0, -7252
     548:	b60f0008 	rtsd	r15, 8
     54c:	f8c30010 	swi	r6, r3, 16

00000550 <XIntc_RegisterHandler>:
{
	XIntc_Config *CfgPtr = NULL;
	int Index;

	for (Index = 0; Index < XPAR_XINTC_NUM_INSTANCES; Index++) {
		if (XIntc_ConfigTable[Index].BaseAddress == BaseAddress) {
     550:	b0000000 	imm	0
     554:	e860e3ac 	lwi	r3, r0, -7252
     558:	88a51800 	xor	r5, r5, r3
     55c:	bc05000c 	beqi	r5, 12		// 568
     560:	b60f0008 	rtsd	r15, 8
     564:	80000000 	or	r0, r0, r0
{
	XIntc_Config *CfgPtr;

	CfgPtr = LookupConfigByBaseAddress(BaseAddress);
	if (CfgPtr != NULL) {
		CfgPtr->HandlerTable[InterruptId].Handler = Handler;
     568:	60660008 	muli	r3, r6, 8
     56c:	b0000000 	imm	0
     570:	f8e3e3c0 	swi	r7, r3, -7232
		CfgPtr->HandlerTable[InterruptId].CallBackRef = CallBackRef;
     574:	b0000000 	imm	0
     578:	f903e3c4 	swi	r8, r3, -7228
     57c:	b60f0008 	rtsd	r15, 8
     580:	80000000 	or	r0, r0, r0

00000584 <XIntc_RegisterFastHandler>:
	u32 Imr;

	CurrentIER = XIntc_In32(BaseAddress + XIN_IER_OFFSET);

	/* Convert from integer id to bit mask */
	Mask = XIntc_BitPosMask[Id];
     584:	60c60004 	muli	r6, r6, 4
     588:	b0000000 	imm	0
     58c:	3066ec40 	addik	r3, r6, -5056
{
	u32 CurrentIER;
	u32 Mask;
	u32 Imr;

	CurrentIER = XIntc_In32(BaseAddress + XIN_IER_OFFSET);
     590:	e8850008 	lwi	r4, r5, 8

	/* Convert from integer id to bit mask */
	Mask = XIntc_BitPosMask[Id];
     594:	e8630000 	lwi	r3, r3, 0

	if (CurrentIER & Mask) {
     598:	84832000 	and	r4, r3, r4
     59c:	be040048 	beqid	r4, 72		// 5e4
     5a0:	30850100 	addik	r4, r5, 256
		/* Disable Interrupt if it was enabled */
		CurrentIER = XIntc_In32(BaseAddress + XIN_IER_OFFSET);
     5a4:	e8850008 	lwi	r4, r5, 8
		XIntc_Out32(BaseAddress + XIN_IER_OFFSET,(CurrentIER & ~Mask));
     5a8:	a923ffff 	xori	r9, r3, -1
	}

	XIntc_Out32(BaseAddress + XIN_IVAR_OFFSET + (Id * 4),
     5ac:	31050100 	addik	r8, r5, 256
	Mask = XIntc_BitPosMask[Id];

	if (CurrentIER & Mask) {
		/* Disable Interrupt if it was enabled */
		CurrentIER = XIntc_In32(BaseAddress + XIN_IER_OFFSET);
		XIntc_Out32(BaseAddress + XIN_IER_OFFSET,(CurrentIER & ~Mask));
     5b0:	85292000 	and	r9, r9, r4
     5b4:	f9250008 	swi	r9, r5, 8
	}

	XIntc_Out32(BaseAddress + XIN_IVAR_OFFSET + (Id * 4),
     5b8:	d8e64000 	sw	r7, r6, r8
				    	(u32) FastHandler);

	Imr = XIntc_In32(BaseAddress + XIN_IMR_OFFSET);
     5bc:	e8c50020 	lwi	r6, r5, 32
	XIntc_Out32(BaseAddress + XIN_IMR_OFFSET, Imr | Mask);


	/* Enable Interrupt if it was enabled before calling this function */
	if (CurrentIER & Mask) {
     5c0:	84841800 	and	r4, r4, r3

	XIntc_Out32(BaseAddress + XIN_IVAR_OFFSET + (Id * 4),
				    	(u32) FastHandler);

	Imr = XIntc_In32(BaseAddress + XIN_IMR_OFFSET);
	XIntc_Out32(BaseAddress + XIN_IMR_OFFSET, Imr | Mask);
     5c4:	80c61800 	or	r6, r6, r3
     5c8:	f8c50020 	swi	r6, r5, 32


	/* Enable Interrupt if it was enabled before calling this function */
	if (CurrentIER & Mask) {
     5cc:	bc040028 	beqi	r4, 40		// 5f4
		CurrentIER = XIntc_In32(BaseAddress + XIN_IER_OFFSET);
     5d0:	e8850008 	lwi	r4, r5, 8
		XIntc_Out32(BaseAddress + XIN_IER_OFFSET,(CurrentIER | Mask));
     5d4:	80641800 	or	r3, r4, r3
     5d8:	f8650008 	swi	r3, r5, 8
     5dc:	b60f0008 	rtsd	r15, 8
     5e0:	80000000 	or	r0, r0, r0
		/* Disable Interrupt if it was enabled */
		CurrentIER = XIntc_In32(BaseAddress + XIN_IER_OFFSET);
		XIntc_Out32(BaseAddress + XIN_IER_OFFSET,(CurrentIER & ~Mask));
	}

	XIntc_Out32(BaseAddress + XIN_IVAR_OFFSET + (Id * 4),
     5e4:	d8e62000 	sw	r7, r6, r4
				    	(u32) FastHandler);

	Imr = XIntc_In32(BaseAddress + XIN_IMR_OFFSET);
     5e8:	e8850020 	lwi	r4, r5, 32
	XIntc_Out32(BaseAddress + XIN_IMR_OFFSET, Imr | Mask);
     5ec:	80641800 	or	r3, r4, r3
     5f0:	f8650020 	swi	r3, r5, 32
     5f4:	b60f0008 	rtsd	r15, 8
     5f8:	80000000 	or	r0, r0, r0

000005fc <StubHandler>:
*
* @note		None.
*
******************************************************************************/
static void StubHandler(void *CallBackRef)
{
     5fc:	3021ffe4 	addik	r1, r1, -28
	/*
	 * Verify that the inputs are valid
	 */
	Xil_AssertVoid(CallBackRef != NULL);
     600:	be050028 	beqid	r5, 40		// 628
     604:	f9e10000 	swi	r15, r1, 0

	/*
	 * Indicate another unhandled interrupt for stats
	 */
	((XIntc *) CallBackRef)->UnhandledInterrupts++;
     608:	e865000c 	lwi	r3, r5, 12
static void StubHandler(void *CallBackRef)
{
	/*
	 * Verify that the inputs are valid
	 */
	Xil_AssertVoid(CallBackRef != NULL);
     60c:	b0000000 	imm	0
     610:	f800ec58 	swi	r0, r0, -5032	// ec58 <Xil_AssertStatus>

	/*
	 * Indicate another unhandled interrupt for stats
	 */
	((XIntc *) CallBackRef)->UnhandledInterrupts++;
     614:	30630001 	addik	r3, r3, 1
     618:	f865000c 	swi	r3, r5, 12
}
     61c:	e9e10000 	lwi	r15, r1, 0
     620:	b60f0008 	rtsd	r15, 8
     624:	3021001c 	addik	r1, r1, 28
static void StubHandler(void *CallBackRef)
{
	/*
	 * Verify that the inputs are valid
	 */
	Xil_AssertVoid(CallBackRef != NULL);
     628:	b0000000 	imm	0
     62c:	30a0d5b8 	addik	r5, r0, -10824	// d5b8 <__rodata_start>
     630:	b0000000 	imm	0
     634:	b9f40c0c 	brlid	r15, 3084	// 1240 <Xil_Assert>
     638:	30c0023f 	addik	r6, r0, 575

	/*
	 * Indicate another unhandled interrupt for stats
	 */
	((XIntc *) CallBackRef)->UnhandledInterrupts++;
}
     63c:	e9e10000 	lwi	r15, r1, 0
static void StubHandler(void *CallBackRef)
{
	/*
	 * Verify that the inputs are valid
	 */
	Xil_AssertVoid(CallBackRef != NULL);
     640:	30600001 	addik	r3, r0, 1
     644:	b0000000 	imm	0
     648:	f860ec58 	swi	r3, r0, -5032	// ec58 <Xil_AssertStatus>

	/*
	 * Indicate another unhandled interrupt for stats
	 */
	((XIntc *) CallBackRef)->UnhandledInterrupts++;
}
     64c:	b60f0008 	rtsd	r15, 8
     650:	3021001c 	addik	r1, r1, 28

00000654 <XIntc_Initialize>:
*
* @note		None.
*
******************************************************************************/
int XIntc_Initialize(XIntc * InstancePtr, u16 DeviceId)
{
     654:	3021ffe0 	addik	r1, r1, -32
     658:	fa61001c 	swi	r19, r1, 28
     65c:	f9e10000 	swi	r15, r1, 0
	u8 Id;
	XIntc_Config *CfgPtr;
	u32 NextBitMask = 1;

	Xil_AssertNonvoid(InstancePtr != NULL);
     660:	be050054 	beqid	r5, 84		// 6b4
     664:	12650000 	addk	r19, r5, r0
	/*
	 * If the device is started, disallow the initialize and return a status
	 * indicating it is started.  This allows the user to stop the device
	 * and reinitialize, but prevents a user from inadvertently initializing
	 */
	if (InstancePtr->IsStarted == XIL_COMPONENT_IS_STARTED) {
     668:	e8850008 	lwi	r4, r5, 8
{
	u8 Id;
	XIntc_Config *CfgPtr;
	u32 NextBitMask = 1;

	Xil_AssertNonvoid(InstancePtr != NULL);
     66c:	b0000000 	imm	0
     670:	f800ec58 	swi	r0, r0, -5032	// ec58 <Xil_AssertStatus>
	/*
	 * If the device is started, disallow the initialize and return a status
	 * indicating it is started.  This allows the user to stop the device
	 * and reinitialize, but prevents a user from inadvertently initializing
	 */
	if (InstancePtr->IsStarted == XIL_COMPONENT_IS_STARTED) {
     674:	b0002222 	imm	8738
     678:	a8842222 	xori	r4, r4, 8738
     67c:	be040028 	beqid	r4, 40		// 6a4
     680:	30600005 	addik	r3, r0, 5
{
	XIntc_Config *CfgPtr = NULL;
	int Index;

	for (Index = 0; Index < XPAR_XINTC_NUM_INSTANCES; Index++) {
		if (XIntc_ConfigTable[Index].DeviceId == DeviceId) {
     684:	b0000000 	imm	0
     688:	e480e3a8 	lhui	r4, r0, -7256	// e3a8 <XIntc_ConfigTable>
     68c:	b0000000 	imm	0
     690:	30a0e3a8 	addik	r5, r0, -7256	// e3a8 <XIntc_ConfigTable>
     694:	88c43000 	xor	r6, r4, r6
     698:	be060044 	beqid	r6, 68		// 6dc
     69c:	30800001 	addik	r4, r0, 1
	 * Lookup the device configuration in the CROM table. Use this
	 * configuration info down below when initializing this component.
	 */
	CfgPtr = XIntc_LookupConfig(DeviceId);
	if (CfgPtr == NULL) {
		return XST_DEVICE_NOT_FOUND;
     6a0:	30600002 	addik	r3, r0, 2
	 * Indicate the instance is now ready to use, successfully initialized
	 */
	InstancePtr->IsReady = XIL_COMPONENT_IS_READY;

	return XST_SUCCESS;
}
     6a4:	e9e10000 	lwi	r15, r1, 0
     6a8:	ea61001c 	lwi	r19, r1, 28
     6ac:	b60f0008 	rtsd	r15, 8
     6b0:	30210020 	addik	r1, r1, 32
{
	u8 Id;
	XIntc_Config *CfgPtr;
	u32 NextBitMask = 1;

	Xil_AssertNonvoid(InstancePtr != NULL);
     6b4:	b0000000 	imm	0
     6b8:	30a0d5b8 	addik	r5, r0, -10824	// d5b8 <__rodata_start>
     6bc:	b0000000 	imm	0
     6c0:	b9f40b80 	brlid	r15, 2944	// 1240 <Xil_Assert>
     6c4:	30c0008b 	addik	r6, r0, 139
     6c8:	30600001 	addik	r3, r0, 1
     6cc:	b0000000 	imm	0
     6d0:	f860ec58 	swi	r3, r0, -5032	// ec58 <Xil_AssertStatus>
     6d4:	b810ffd0 	brid	-48		// 6a4
     6d8:	10730000 	addk	r3, r19, r0
	}

	/*
	 * Set some default values
	 */
	InstancePtr->IsReady = 0;
     6dc:	f8d30004 	swi	r6, r19, 4
	InstancePtr->IsStarted = 0;	/* not started */
     6e0:	f8d30008 	swi	r6, r19, 8
	InstancePtr->CfgPtr = CfgPtr;
     6e4:	f8b30010 	swi	r5, r19, 16

	InstancePtr->CfgPtr->Options = XIN_SVC_SGL_ISR_OPTION;
     6e8:	f8850014 	swi	r4, r5, 20
	 * interrupt can be accessed
	 */
#if (XPAR_XINTC_USE_DCR_BRIDGE != 0)
	InstancePtr->BaseAddress = ((CfgPtr->BaseAddress >> 2)) & 0xFFF;
#else
	InstancePtr->BaseAddress = CfgPtr->BaseAddress;
     6ec:	b0000000 	imm	0
     6f0:	e8a0e3ac 	lwi	r5, r0, -7252
		 * initialize it if the handler is 0 or XNullHandler, which
		 * means it was not initialized statically by the tools/user.
		 * Set the callback reference to this instance so that unhandled
		 * interrupts can be tracked.
		 */
		if ((InstancePtr->CfgPtr->HandlerTable[Id].Handler == 0) ||
     6f4:	b0000000 	imm	0
     6f8:	31601238 	addik	r11, r0, 4664	// 1238 <XNullHandler>
	 * interrupt can be accessed
	 */
#if (XPAR_XINTC_USE_DCR_BRIDGE != 0)
	InstancePtr->BaseAddress = ((CfgPtr->BaseAddress >> 2)) & 0xFFF;
#else
	InstancePtr->BaseAddress = CfgPtr->BaseAddress;
     6fc:	f8b30000 	swi	r5, r19, 0
		 * initialize it if the handler is 0 or XNullHandler, which
		 * means it was not initialized statically by the tools/user.
		 * Set the callback reference to this instance so that unhandled
		 * interrupts can be tracked.
		 */
		if ((InstancePtr->CfgPtr->HandlerTable[Id].Handler == 0) ||
     700:	30e60003 	addik	r7, r6, 3
     704:	60a70008 	muli	r5, r7, 8
     708:	b0000000 	imm	0
     70c:	30a5e3a8 	addik	r5, r5, -7256
     710:	e8a50000 	lwi	r5, r5, 0

	/*
	 * Initialize all the data needed to perform interrupt processing for
	 * each interrupt ID up to the maximum used
	 */
	for (Id = 0; Id < XPAR_INTC_MAX_NUM_INTR_INPUTS; Id++) {
     714:	3063ffff 	addik	r3, r3, -1
		    (InstancePtr->CfgPtr->HandlerTable[Id].Handler ==
		     XNullHandler)) {
			InstancePtr->CfgPtr->HandlerTable[Id].Handler =
				StubHandler;
		}
		InstancePtr->CfgPtr->HandlerTable[Id].CallBackRef = InstancePtr;
     718:	61060008 	muli	r8, r6, 8
		 * Initialize the bit position mask table such that bit
		 * positions are lookups only for each interrupt id, with 0
		 * being a special case
		 * (XIntc_BitPosMask[] = { 1, 2, 4, 8, ... })
		 */
		XIntc_BitPosMask[Id] = NextBitMask;
     71c:	61260004 	muli	r9, r6, 4

	/*
	 * Initialize all the data needed to perform interrupt processing for
	 * each interrupt ID up to the maximum used
	 */
	for (Id = 0; Id < XPAR_INTC_MAX_NUM_INTR_INPUTS; Id++) {
     720:	a46300ff 	andi	r3, r3, 255
     724:	30c60001 	addik	r6, r6, 1
		 * initialize it if the handler is 0 or XNullHandler, which
		 * means it was not initialized statically by the tools/user.
		 * Set the callback reference to this instance so that unhandled
		 * interrupts can be tracked.
		 */
		if ((InstancePtr->CfgPtr->HandlerTable[Id].Handler == 0) ||
     728:	be050074 	beqid	r5, 116		// 79c
     72c:	89455800 	xor	r10, r5, r11
     730:	bc0a006c 	beqi	r10, 108		// 79c
		 * Initialize the bit position mask table such that bit
		 * positions are lookups only for each interrupt id, with 0
		 * being a special case
		 * (XIntc_BitPosMask[] = { 1, 2, 4, 8, ... })
		 */
		XIntc_BitPosMask[Id] = NextBitMask;
     734:	b0000000 	imm	0
     738:	f889ec40 	swi	r4, r9, -5056
		    (InstancePtr->CfgPtr->HandlerTable[Id].Handler ==
		     XNullHandler)) {
			InstancePtr->CfgPtr->HandlerTable[Id].Handler =
				StubHandler;
		}
		InstancePtr->CfgPtr->HandlerTable[Id].CallBackRef = InstancePtr;
     73c:	b0000000 	imm	0
     740:	fa68e3c4 	swi	r19, r8, -7228
		 * positions are lookups only for each interrupt id, with 0
		 * being a special case
		 * (XIntc_BitPosMask[] = { 1, 2, 4, 8, ... })
		 */
		XIntc_BitPosMask[Id] = NextBitMask;
		NextBitMask *= 2;
     744:	10842000 	addk	r4, r4, r4

	/*
	 * Initialize all the data needed to perform interrupt processing for
	 * each interrupt ID up to the maximum used
	 */
	for (Id = 0; Id < XPAR_INTC_MAX_NUM_INTR_INPUTS; Id++) {
     748:	be23ffb8 	bneid	r3, -72		// 700
     74c:	a4c600ff 	andi	r6, r6, 255
	/*
	 * Disable IRQ output signal
	 * Disable all interrupt sources
	 * Acknowledge all sources
	 */
	XIntc_Out32(InstancePtr->BaseAddress + XIN_MER_OFFSET, 0);
     750:	e8930000 	lwi	r4, r19, 0
	XIntc_Out32(InstancePtr->BaseAddress + XIN_IER_OFFSET, 0);
	XIntc_Out32(InstancePtr->BaseAddress + XIN_IAR_OFFSET, 0xFFFFFFFF);
     754:	30c0ffff 	addik	r6, r0, -1
	/*
	 * Disable IRQ output signal
	 * Disable all interrupt sources
	 * Acknowledge all sources
	 */
	XIntc_Out32(InstancePtr->BaseAddress + XIN_MER_OFFSET, 0);
     758:	f864001c 	swi	r3, r4, 28
	XIntc_Out32(InstancePtr->BaseAddress + XIN_IER_OFFSET, 0);
     75c:	e8b30000 	lwi	r5, r19, 0

	/*
	 * If the fast Interrupt mode is enabled then set all the
	 * interrupts as normal mode.
	 */
	if(InstancePtr->CfgPtr->FastIntr == TRUE) {
     760:	b0000000 	imm	0
     764:	e880e3b4 	lwi	r4, r0, -7244
	 * Disable IRQ output signal
	 * Disable all interrupt sources
	 * Acknowledge all sources
	 */
	XIntc_Out32(InstancePtr->BaseAddress + XIN_MER_OFFSET, 0);
	XIntc_Out32(InstancePtr->BaseAddress + XIN_IER_OFFSET, 0);
     768:	f8650008 	swi	r3, r5, 8
	XIntc_Out32(InstancePtr->BaseAddress + XIN_IAR_OFFSET, 0xFFFFFFFF);
     76c:	e8b30000 	lwi	r5, r19, 0

	/*
	 * If the fast Interrupt mode is enabled then set all the
	 * interrupts as normal mode.
	 */
	if(InstancePtr->CfgPtr->FastIntr == TRUE) {
     770:	a8840001 	xori	r4, r4, 1
	 * Disable all interrupt sources
	 * Acknowledge all sources
	 */
	XIntc_Out32(InstancePtr->BaseAddress + XIN_MER_OFFSET, 0);
	XIntc_Out32(InstancePtr->BaseAddress + XIN_IER_OFFSET, 0);
	XIntc_Out32(InstancePtr->BaseAddress + XIN_IAR_OFFSET, 0xFFFFFFFF);
     774:	f8c5000c 	swi	r6, r5, 12

	/*
	 * If the fast Interrupt mode is enabled then set all the
	 * interrupts as normal mode.
	 */
	if(InstancePtr->CfgPtr->FastIntr == TRUE) {
     778:	bc04003c 	beqi	r4, 60		// 7b4


	/*
	 * Indicate the instance is now ready to use, successfully initialized
	 */
	InstancePtr->IsReady = XIL_COMPONENT_IS_READY;
     77c:	b0001111 	imm	4369
     780:	30601111 	addik	r3, r0, 4369
     784:	f8730004 	swi	r3, r19, 4

	return XST_SUCCESS;
}
     788:	e9e10000 	lwi	r15, r1, 0
     78c:	ea61001c 	lwi	r19, r1, 28
	/*
	 * Indicate the instance is now ready to use, successfully initialized
	 */
	InstancePtr->IsReady = XIL_COMPONENT_IS_READY;

	return XST_SUCCESS;
     790:	10600000 	addk	r3, r0, r0
}
     794:	b60f0008 	rtsd	r15, 8
     798:	30210020 	addik	r1, r1, 32
		 * interrupts can be tracked.
		 */
		if ((InstancePtr->CfgPtr->HandlerTable[Id].Handler == 0) ||
		    (InstancePtr->CfgPtr->HandlerTable[Id].Handler ==
		     XNullHandler)) {
			InstancePtr->CfgPtr->HandlerTable[Id].Handler =
     79c:	b0000000 	imm	0
     7a0:	30a005fc 	addik	r5, r0, 1532	// 5fc <StubHandler>
     7a4:	60e70008 	muli	r7, r7, 8
     7a8:	b0000000 	imm	0
     7ac:	f8a7e3a8 	swi	r5, r7, -7256
     7b0:	b800ff84 	bri	-124		// 734
	/*
	 * If the fast Interrupt mode is enabled then set all the
	 * interrupts as normal mode.
	 */
	if(InstancePtr->CfgPtr->FastIntr == TRUE) {
		XIntc_Out32(InstancePtr->BaseAddress + XIN_IMR_OFFSET, 0);
     7b4:	e8930000 	lwi	r4, r19, 0
     7b8:	f8640020 	swi	r3, r4, 32
     7bc:	b800ffc0 	bri	-64		// 77c

000007c0 <XIntc_Start>:
*
* @note 	Must be called after XIntc initialization is completed.
*
******************************************************************************/
int XIntc_Start(XIntc * InstancePtr, u8 Mode)
{
     7c0:	3021ffe0 	addik	r1, r1, -32
     7c4:	f9e10000 	swi	r15, r1, 0
	u32 MasterEnable = XIN_INT_MASTER_ENABLE_MASK;

	/*
	 * Assert the arguments
	 */
	Xil_AssertNonvoid(InstancePtr != NULL);
     7c8:	be0500c0 	beqid	r5, 192		// 888
     7cc:	fa61001c 	swi	r19, r1, 28
	Xil_AssertNonvoid((Mode == XIN_SIMULATION_MODE) ||
     7d0:	32600001 	addik	r19, r0, 1
	u32 MasterEnable = XIN_INT_MASTER_ENABLE_MASK;

	/*
	 * Assert the arguments
	 */
	Xil_AssertNonvoid(InstancePtr != NULL);
     7d4:	b0000000 	imm	0
     7d8:	f800ec58 	swi	r0, r0, -5032	// ec58 <Xil_AssertStatus>
	Xil_AssertNonvoid((Mode == XIN_SIMULATION_MODE) ||
     7dc:	14669803 	cmpu	r3, r6, r19
     7e0:	bc430078 	blti	r3, 120		// 858
			(Mode == XIN_REAL_MODE))
	Xil_AssertNonvoid(InstancePtr->IsReady == XIL_COMPONENT_IS_READY);
     7e4:	e8650004 	lwi	r3, r5, 4
     7e8:	b0001111 	imm	4369
     7ec:	a8631111 	xori	r3, r3, 4369
     7f0:	bc230038 	bnei	r3, 56		// 828

	/*
	 * Check for simulation mode
	 */
	if (Mode == XIN_SIMULATION_MODE) {
     7f4:	be26000c 	bneid	r6, 12		// 800
     7f8:	30600003 	addik	r3, r0, 3
* @note 	Must be called after XIntc initialization is completed.
*
******************************************************************************/
int XIntc_Start(XIntc * InstancePtr, u8 Mode)
{
	u32 MasterEnable = XIN_INT_MASTER_ENABLE_MASK;
     7fc:	10730000 	addk	r3, r19, r0

	/*
	 * Indicate the instance is ready to be used and is started before we
	 * enable the device.
	 */
	InstancePtr->IsStarted = XIL_COMPONENT_IS_STARTED;
     800:	b0002222 	imm	8738
     804:	30c02222 	addik	r6, r0, 8738

	XIntc_Out32(InstancePtr->BaseAddress + XIN_MER_OFFSET, MasterEnable);
     808:	e8850000 	lwi	r4, r5, 0

	/*
	 * Indicate the instance is ready to be used and is started before we
	 * enable the device.
	 */
	InstancePtr->IsStarted = XIL_COMPONENT_IS_STARTED;
     80c:	f8c50008 	swi	r6, r5, 8

	XIntc_Out32(InstancePtr->BaseAddress + XIN_MER_OFFSET, MasterEnable);
     810:	f864001c 	swi	r3, r4, 28

	return XST_SUCCESS;
}
     814:	e9e10000 	lwi	r15, r1, 0
     818:	ea61001c 	lwi	r19, r1, 28
     81c:	10600000 	addk	r3, r0, r0
     820:	b60f0008 	rtsd	r15, 8
     824:	30210020 	addik	r1, r1, 32
	 * Assert the arguments
	 */
	Xil_AssertNonvoid(InstancePtr != NULL);
	Xil_AssertNonvoid((Mode == XIN_SIMULATION_MODE) ||
			(Mode == XIN_REAL_MODE))
	Xil_AssertNonvoid(InstancePtr->IsReady == XIL_COMPONENT_IS_READY);
     828:	b0000000 	imm	0
     82c:	30a0d5b8 	addik	r5, r0, -10824	// d5b8 <__rodata_start>
     830:	b0000000 	imm	0
     834:	b9f40a0c 	brlid	r15, 2572	// 1240 <Xil_Assert>
     838:	30c00112 	addik	r6, r0, 274
     83c:	b0000000 	imm	0
     840:	fa60ec58 	swi	r19, r0, -5032	// ec58 <Xil_AssertStatus>
	InstancePtr->IsStarted = XIL_COMPONENT_IS_STARTED;

	XIntc_Out32(InstancePtr->BaseAddress + XIN_MER_OFFSET, MasterEnable);

	return XST_SUCCESS;
}
     844:	e9e10000 	lwi	r15, r1, 0
     848:	ea61001c 	lwi	r19, r1, 28
     84c:	10600000 	addk	r3, r0, r0
     850:	b60f0008 	rtsd	r15, 8
     854:	30210020 	addik	r1, r1, 32

	/*
	 * Assert the arguments
	 */
	Xil_AssertNonvoid(InstancePtr != NULL);
	Xil_AssertNonvoid((Mode == XIN_SIMULATION_MODE) ||
     858:	b0000000 	imm	0
     85c:	30a0d5b8 	addik	r5, r0, -10824	// d5b8 <__rodata_start>
     860:	b0000000 	imm	0
     864:	b9f409dc 	brlid	r15, 2524	// 1240 <Xil_Assert>
     868:	30c00111 	addik	r6, r0, 273
	InstancePtr->IsStarted = XIL_COMPONENT_IS_STARTED;

	XIntc_Out32(InstancePtr->BaseAddress + XIN_MER_OFFSET, MasterEnable);

	return XST_SUCCESS;
}
     86c:	e9e10000 	lwi	r15, r1, 0

	/*
	 * Assert the arguments
	 */
	Xil_AssertNonvoid(InstancePtr != NULL);
	Xil_AssertNonvoid((Mode == XIN_SIMULATION_MODE) ||
     870:	b0000000 	imm	0
     874:	fa60ec58 	swi	r19, r0, -5032	// ec58 <Xil_AssertStatus>
	InstancePtr->IsStarted = XIL_COMPONENT_IS_STARTED;

	XIntc_Out32(InstancePtr->BaseAddress + XIN_MER_OFFSET, MasterEnable);

	return XST_SUCCESS;
}
     878:	ea61001c 	lwi	r19, r1, 28
     87c:	10600000 	addk	r3, r0, r0
     880:	b60f0008 	rtsd	r15, 8
     884:	30210020 	addik	r1, r1, 32
	u32 MasterEnable = XIN_INT_MASTER_ENABLE_MASK;

	/*
	 * Assert the arguments
	 */
	Xil_AssertNonvoid(InstancePtr != NULL);
     888:	b0000000 	imm	0
     88c:	30a0d5b8 	addik	r5, r0, -10824	// d5b8 <__rodata_start>
     890:	b0000000 	imm	0
     894:	b9f409ac 	brlid	r15, 2476	// 1240 <Xil_Assert>
     898:	30c0010f 	addik	r6, r0, 271
     89c:	30600001 	addik	r3, r0, 1
     8a0:	b0000000 	imm	0
     8a4:	f860ec58 	swi	r3, r0, -5032	// ec58 <Xil_AssertStatus>
     8a8:	b810ffa0 	brid	-96		// 848
     8ac:	e9e10000 	lwi	r15, r1, 0

000008b0 <XIntc_Stop>:
*
* @note		None.
*
******************************************************************************/
void XIntc_Stop(XIntc * InstancePtr)
{
     8b0:	3021ffe4 	addik	r1, r1, -28
	/*
	 * Assert the arguments
	 */
	Xil_AssertVoid(InstancePtr != NULL);
     8b4:	be050064 	beqid	r5, 100		// 918
     8b8:	f9e10000 	swi	r15, r1, 0
	Xil_AssertVoid(InstancePtr->IsReady == XIL_COMPONENT_IS_READY);
     8bc:	e8650004 	lwi	r3, r5, 4
void XIntc_Stop(XIntc * InstancePtr)
{
	/*
	 * Assert the arguments
	 */
	Xil_AssertVoid(InstancePtr != NULL);
     8c0:	b0000000 	imm	0
     8c4:	f800ec58 	swi	r0, r0, -5032	// ec58 <Xil_AssertStatus>
	Xil_AssertVoid(InstancePtr->IsReady == XIL_COMPONENT_IS_READY);
     8c8:	b0001111 	imm	4369
     8cc:	a8631111 	xori	r3, r3, 4369
     8d0:	bc030030 	beqi	r3, 48		// 900
     8d4:	b0000000 	imm	0
     8d8:	30a0d5b8 	addik	r5, r0, -10824	// d5b8 <__rodata_start>
     8dc:	b0000000 	imm	0
     8e0:	b9f40960 	brlid	r15, 2400	// 1240 <Xil_Assert>
     8e4:	30c0013e 	addik	r6, r0, 318
     8e8:	30600001 	addik	r3, r0, 1
     8ec:	b0000000 	imm	0
     8f0:	f860ec58 	swi	r3, r0, -5032	// ec58 <Xil_AssertStatus>
	 * disabling all interrupts in the MER register
	 */
	XIntc_Out32(InstancePtr->BaseAddress + XIN_MER_OFFSET, 0);

	InstancePtr->IsStarted = 0;
}
     8f4:	e9e10000 	lwi	r15, r1, 0
     8f8:	b60f0008 	rtsd	r15, 8
     8fc:	3021001c 	addik	r1, r1, 28

	/*
	 * Stop all interrupts from occurring thru the interrupt controller by
	 * disabling all interrupts in the MER register
	 */
	XIntc_Out32(InstancePtr->BaseAddress + XIN_MER_OFFSET, 0);
     900:	e8850000 	lwi	r4, r5, 0
     904:	f864001c 	swi	r3, r4, 28

	InstancePtr->IsStarted = 0;
     908:	f8650008 	swi	r3, r5, 8
}
     90c:	e9e10000 	lwi	r15, r1, 0
     910:	b60f0008 	rtsd	r15, 8
     914:	3021001c 	addik	r1, r1, 28
void XIntc_Stop(XIntc * InstancePtr)
{
	/*
	 * Assert the arguments
	 */
	Xil_AssertVoid(InstancePtr != NULL);
     918:	b0000000 	imm	0
     91c:	30a0d5b8 	addik	r5, r0, -10824	// d5b8 <__rodata_start>
     920:	b0000000 	imm	0
     924:	b9f4091c 	brlid	r15, 2332	// 1240 <Xil_Assert>
     928:	30c0013d 	addik	r6, r0, 317
     92c:	30600001 	addik	r3, r0, 1
     930:	b0000000 	imm	0
     934:	f860ec58 	swi	r3, r0, -5032	// ec58 <Xil_AssertStatus>
     938:	b810ffc0 	brid	-64		// 8f8
     93c:	e9e10000 	lwi	r15, r1, 0

00000940 <XIntc_Connect>:
* that was previously connected.
*
****************************************************************************/
int XIntc_Connect(XIntc * InstancePtr, u8 Id,
		  XInterruptHandler Handler, void *CallBackRef)
{
     940:	3021ffe4 	addik	r1, r1, -28
	/*
	 * Assert the arguments
	 */
	Xil_AssertNonvoid(InstancePtr != NULL);
     944:	be0500bc 	beqid	r5, 188		// a00
     948:	f9e10000 	swi	r15, r1, 0
	Xil_AssertNonvoid(Id < XPAR_INTC_MAX_NUM_INTR_INPUTS);
     94c:	30600004 	addik	r3, r0, 4
		  XInterruptHandler Handler, void *CallBackRef)
{
	/*
	 * Assert the arguments
	 */
	Xil_AssertNonvoid(InstancePtr != NULL);
     950:	b0000000 	imm	0
     954:	f800ec58 	swi	r0, r0, -5032	// ec58 <Xil_AssertStatus>
	Xil_AssertNonvoid(Id < XPAR_INTC_MAX_NUM_INTR_INPUTS);
     958:	14661803 	cmpu	r3, r6, r3
     95c:	bc430074 	blti	r3, 116		// 9d0
	Xil_AssertNonvoid(Handler != NULL);
     960:	bc0700c8 	beqi	r7, 200		// a28
	Xil_AssertNonvoid(InstancePtr->IsReady == XIL_COMPONENT_IS_READY);
     964:	e8650004 	lwi	r3, r5, 4
     968:	b0001111 	imm	4369
     96c:	a8631111 	xori	r3, r3, 4369
     970:	be030038 	beqid	r3, 56		// 9a8
     974:	30860003 	addik	r4, r6, 3
     978:	b0000000 	imm	0
     97c:	30a0d5b8 	addik	r5, r0, -10824	// d5b8 <__rodata_start>
     980:	b0000000 	imm	0
     984:	b9f408bc 	brlid	r15, 2236	// 1240 <Xil_Assert>
     988:	30c0016c 	addik	r6, r0, 364
     98c:	30600001 	addik	r3, r0, 1
     990:	b0000000 	imm	0
     994:	f860ec58 	swi	r3, r0, -5032	// ec58 <Xil_AssertStatus>
	 */
	InstancePtr->CfgPtr->HandlerTable[Id].Handler = Handler;
	InstancePtr->CfgPtr->HandlerTable[Id].CallBackRef = CallBackRef;

	return XST_SUCCESS;
}
     998:	e9e10000 	lwi	r15, r1, 0
     99c:	10600000 	addk	r3, r0, r0
     9a0:	b60f0008 	rtsd	r15, 8
     9a4:	3021001c 	addik	r1, r1, 28

	/*
	 * The Id is used as an index into the table to select the proper
	 * handler
	 */
	InstancePtr->CfgPtr->HandlerTable[Id].Handler = Handler;
     9a8:	e8650010 	lwi	r3, r5, 16
	InstancePtr->CfgPtr->HandlerTable[Id].CallBackRef = CallBackRef;
     9ac:	60c60008 	muli	r6, r6, 8
     9b0:	10c33000 	addk	r6, r3, r6

	/*
	 * The Id is used as an index into the table to select the proper
	 * handler
	 */
	InstancePtr->CfgPtr->HandlerTable[Id].Handler = Handler;
     9b4:	60840008 	muli	r4, r4, 8
     9b8:	d8e41800 	sw	r7, r4, r3
	InstancePtr->CfgPtr->HandlerTable[Id].CallBackRef = CallBackRef;
     9bc:	f906001c 	swi	r8, r6, 28

	return XST_SUCCESS;
}
     9c0:	e9e10000 	lwi	r15, r1, 0
     9c4:	10600000 	addk	r3, r0, r0
     9c8:	b60f0008 	rtsd	r15, 8
     9cc:	3021001c 	addik	r1, r1, 28
{
	/*
	 * Assert the arguments
	 */
	Xil_AssertNonvoid(InstancePtr != NULL);
	Xil_AssertNonvoid(Id < XPAR_INTC_MAX_NUM_INTR_INPUTS);
     9d0:	b0000000 	imm	0
     9d4:	30a0d5b8 	addik	r5, r0, -10824	// d5b8 <__rodata_start>
     9d8:	b0000000 	imm	0
     9dc:	b9f40864 	brlid	r15, 2148	// 1240 <Xil_Assert>
     9e0:	30c0016a 	addik	r6, r0, 362
	 */
	InstancePtr->CfgPtr->HandlerTable[Id].Handler = Handler;
	InstancePtr->CfgPtr->HandlerTable[Id].CallBackRef = CallBackRef;

	return XST_SUCCESS;
}
     9e4:	e9e10000 	lwi	r15, r1, 0
{
	/*
	 * Assert the arguments
	 */
	Xil_AssertNonvoid(InstancePtr != NULL);
	Xil_AssertNonvoid(Id < XPAR_INTC_MAX_NUM_INTR_INPUTS);
     9e8:	30600001 	addik	r3, r0, 1
     9ec:	b0000000 	imm	0
     9f0:	f860ec58 	swi	r3, r0, -5032	// ec58 <Xil_AssertStatus>
	 */
	InstancePtr->CfgPtr->HandlerTable[Id].Handler = Handler;
	InstancePtr->CfgPtr->HandlerTable[Id].CallBackRef = CallBackRef;

	return XST_SUCCESS;
}
     9f4:	10600000 	addk	r3, r0, r0
     9f8:	b60f0008 	rtsd	r15, 8
     9fc:	3021001c 	addik	r1, r1, 28
		  XInterruptHandler Handler, void *CallBackRef)
{
	/*
	 * Assert the arguments
	 */
	Xil_AssertNonvoid(InstancePtr != NULL);
     a00:	b0000000 	imm	0
     a04:	30a0d5b8 	addik	r5, r0, -10824	// d5b8 <__rodata_start>
     a08:	b0000000 	imm	0
     a0c:	b9f40834 	brlid	r15, 2100	// 1240 <Xil_Assert>
     a10:	30c00169 	addik	r6, r0, 361
     a14:	30600001 	addik	r3, r0, 1
     a18:	b0000000 	imm	0
     a1c:	f860ec58 	swi	r3, r0, -5032	// ec58 <Xil_AssertStatus>
     a20:	b810ff7c 	brid	-132		// 99c
     a24:	e9e10000 	lwi	r15, r1, 0
	Xil_AssertNonvoid(Id < XPAR_INTC_MAX_NUM_INTR_INPUTS);
	Xil_AssertNonvoid(Handler != NULL);
     a28:	b0000000 	imm	0
     a2c:	30a0d5b8 	addik	r5, r0, -10824	// d5b8 <__rodata_start>
     a30:	b0000000 	imm	0
     a34:	b9f4080c 	brlid	r15, 2060	// 1240 <Xil_Assert>
     a38:	30c0016b 	addik	r6, r0, 363
     a3c:	30600001 	addik	r3, r0, 1
     a40:	b0000000 	imm	0
     a44:	f860ec58 	swi	r3, r0, -5032	// ec58 <Xil_AssertStatus>
     a48:	b810ff54 	brid	-172		// 99c
     a4c:	e9e10000 	lwi	r15, r1, 0

00000a50 <XIntc_Disconnect>:
*
* @note		None.
*
****************************************************************************/
void XIntc_Disconnect(XIntc * InstancePtr, u8 Id)
{
     a50:	3021ffe4 	addik	r1, r1, -28
	u32 Mask;

	/*
	 * Assert the arguments
	 */
	Xil_AssertVoid(InstancePtr != NULL);
     a54:	be0500d8 	beqid	r5, 216		// b2c
     a58:	f9e10000 	swi	r15, r1, 0
	Xil_AssertVoid(Id < XPAR_INTC_MAX_NUM_INTR_INPUTS);
     a5c:	30600004 	addik	r3, r0, 4
	u32 Mask;

	/*
	 * Assert the arguments
	 */
	Xil_AssertVoid(InstancePtr != NULL);
     a60:	b0000000 	imm	0
     a64:	f800ec58 	swi	r0, r0, -5032	// ec58 <Xil_AssertStatus>
	Xil_AssertVoid(Id < XPAR_INTC_MAX_NUM_INTR_INPUTS);
     a68:	14661803 	cmpu	r3, r6, r3
     a6c:	bc430094 	blti	r3, 148		// b00
	Xil_AssertVoid(InstancePtr->IsReady == XIL_COMPONENT_IS_READY);
     a70:	e8650004 	lwi	r3, r5, 4
     a74:	b0001111 	imm	4369
     a78:	a8631111 	xori	r3, r3, 4369
     a7c:	be030034 	beqid	r3, 52		// ab0
     a80:	60660004 	muli	r3, r6, 4
     a84:	b0000000 	imm	0
     a88:	30a0d5b8 	addik	r5, r0, -10824	// d5b8 <__rodata_start>
     a8c:	b0000000 	imm	0
     a90:	b9f407b0 	brlid	r15, 1968	// 1240 <Xil_Assert>
     a94:	30c00193 	addik	r6, r0, 403
     a98:	30600001 	addik	r3, r0, 1
     a9c:	b0000000 	imm	0
     aa0:	f860ec58 	swi	r3, r0, -5032	// ec58 <Xil_AssertStatus>
	 * must be set to this instance to allow unhandled interrupts to be
	 * tracked
	 */
	InstancePtr->CfgPtr->HandlerTable[Id].Handler = StubHandler;
	InstancePtr->CfgPtr->HandlerTable[Id].CallBackRef = InstancePtr;
}
     aa4:	e9e10000 	lwi	r15, r1, 0
     aa8:	b60f0008 	rtsd	r15, 8
     aac:	3021001c 	addik	r1, r1, 28
	/*
	 * Disable the interrupt such that it won't occur while disconnecting
	 * the handler, only disable the specified interrupt id without
	 * modifying the other interrupt ids
	 */
	CurrentIER = XIntc_In32(InstancePtr->BaseAddress + XIN_IER_OFFSET);
     ab0:	e8e50000 	lwi	r7, r5, 0

	Mask = XIntc_BitPosMask[Id];/* convert from integer id to bit mask */
     ab4:	b0000000 	imm	0
     ab8:	3063ec40 	addik	r3, r3, -5056

	XIntc_Out32(InstancePtr->BaseAddress + XIN_IER_OFFSET,
     abc:	e9030000 	lwi	r8, r3, 0
	/*
	 * Disable the interrupt such that it won't occur while disconnecting
	 * the handler, only disable the specified interrupt id without
	 * modifying the other interrupt ids
	 */
	CurrentIER = XIntc_In32(InstancePtr->BaseAddress + XIN_IER_OFFSET);
     ac0:	e8670008 	lwi	r3, r7, 8
	/*
	 * Disconnect the handler and connect a stub, the callback reference
	 * must be set to this instance to allow unhandled interrupts to be
	 * tracked
	 */
	InstancePtr->CfgPtr->HandlerTable[Id].Handler = StubHandler;
     ac4:	e8850010 	lwi	r4, r5, 16
	 */
	CurrentIER = XIntc_In32(InstancePtr->BaseAddress + XIN_IER_OFFSET);

	Mask = XIntc_BitPosMask[Id];/* convert from integer id to bit mask */

	XIntc_Out32(InstancePtr->BaseAddress + XIN_IER_OFFSET,
     ac8:	a908ffff 	xori	r8, r8, -1
     acc:	85081800 	and	r8, r8, r3
     ad0:	f9070008 	swi	r8, r7, 8
	/*
	 * Disconnect the handler and connect a stub, the callback reference
	 * must be set to this instance to allow unhandled interrupts to be
	 * tracked
	 */
	InstancePtr->CfgPtr->HandlerTable[Id].Handler = StubHandler;
     ad4:	b0000000 	imm	0
     ad8:	30e005fc 	addik	r7, r0, 1532	// 5fc <StubHandler>
     adc:	30660003 	addik	r3, r6, 3
	InstancePtr->CfgPtr->HandlerTable[Id].CallBackRef = InstancePtr;
     ae0:	60c60008 	muli	r6, r6, 8
	/*
	 * Disconnect the handler and connect a stub, the callback reference
	 * must be set to this instance to allow unhandled interrupts to be
	 * tracked
	 */
	InstancePtr->CfgPtr->HandlerTable[Id].Handler = StubHandler;
     ae4:	60630008 	muli	r3, r3, 8
	InstancePtr->CfgPtr->HandlerTable[Id].CallBackRef = InstancePtr;
     ae8:	10c43000 	addk	r6, r4, r6
	/*
	 * Disconnect the handler and connect a stub, the callback reference
	 * must be set to this instance to allow unhandled interrupts to be
	 * tracked
	 */
	InstancePtr->CfgPtr->HandlerTable[Id].Handler = StubHandler;
     aec:	d8e32000 	sw	r7, r3, r4
	InstancePtr->CfgPtr->HandlerTable[Id].CallBackRef = InstancePtr;
     af0:	f8a6001c 	swi	r5, r6, 28
}
     af4:	e9e10000 	lwi	r15, r1, 0
     af8:	b60f0008 	rtsd	r15, 8
     afc:	3021001c 	addik	r1, r1, 28

	/*
	 * Assert the arguments
	 */
	Xil_AssertVoid(InstancePtr != NULL);
	Xil_AssertVoid(Id < XPAR_INTC_MAX_NUM_INTR_INPUTS);
     b00:	b0000000 	imm	0
     b04:	30a0d5b8 	addik	r5, r0, -10824	// d5b8 <__rodata_start>
     b08:	b0000000 	imm	0
     b0c:	b9f40734 	brlid	r15, 1844	// 1240 <Xil_Assert>
     b10:	30c00192 	addik	r6, r0, 402
	 * must be set to this instance to allow unhandled interrupts to be
	 * tracked
	 */
	InstancePtr->CfgPtr->HandlerTable[Id].Handler = StubHandler;
	InstancePtr->CfgPtr->HandlerTable[Id].CallBackRef = InstancePtr;
}
     b14:	e9e10000 	lwi	r15, r1, 0

	/*
	 * Assert the arguments
	 */
	Xil_AssertVoid(InstancePtr != NULL);
	Xil_AssertVoid(Id < XPAR_INTC_MAX_NUM_INTR_INPUTS);
     b18:	30e00001 	addik	r7, r0, 1
     b1c:	b0000000 	imm	0
     b20:	f8e0ec58 	swi	r7, r0, -5032	// ec58 <Xil_AssertStatus>
	 * must be set to this instance to allow unhandled interrupts to be
	 * tracked
	 */
	InstancePtr->CfgPtr->HandlerTable[Id].Handler = StubHandler;
	InstancePtr->CfgPtr->HandlerTable[Id].CallBackRef = InstancePtr;
}
     b24:	b60f0008 	rtsd	r15, 8
     b28:	3021001c 	addik	r1, r1, 28
	u32 Mask;

	/*
	 * Assert the arguments
	 */
	Xil_AssertVoid(InstancePtr != NULL);
     b2c:	b0000000 	imm	0
     b30:	30a0d5b8 	addik	r5, r0, -10824	// d5b8 <__rodata_start>
     b34:	b0000000 	imm	0
     b38:	b9f40708 	brlid	r15, 1800	// 1240 <Xil_Assert>
     b3c:	30c00191 	addik	r6, r0, 401
     b40:	30600001 	addik	r3, r0, 1
     b44:	b0000000 	imm	0
     b48:	f860ec58 	swi	r3, r0, -5032	// ec58 <Xil_AssertStatus>
     b4c:	b810ff5c 	brid	-164		// aa8
     b50:	e9e10000 	lwi	r15, r1, 0

00000b54 <XIntc_Enable>:
*
* @note		None.
*
****************************************************************************/
void XIntc_Enable(XIntc * InstancePtr, u8 Id)
{
     b54:	3021ffe4 	addik	r1, r1, -28
	u32 Mask;

	/*
	 * Assert the arguments
	 */
	Xil_AssertVoid(InstancePtr != NULL);
     b58:	be0500b0 	beqid	r5, 176		// c08
     b5c:	f9e10000 	swi	r15, r1, 0
	Xil_AssertVoid(Id < XPAR_INTC_MAX_NUM_INTR_INPUTS);
     b60:	30600004 	addik	r3, r0, 4
	u32 Mask;

	/*
	 * Assert the arguments
	 */
	Xil_AssertVoid(InstancePtr != NULL);
     b64:	b0000000 	imm	0
     b68:	f800ec58 	swi	r0, r0, -5032	// ec58 <Xil_AssertStatus>
	Xil_AssertVoid(Id < XPAR_INTC_MAX_NUM_INTR_INPUTS);
     b6c:	14661803 	cmpu	r3, r6, r3
     b70:	bc43006c 	blti	r3, 108		// bdc
	Xil_AssertVoid(InstancePtr->IsReady == XIL_COMPONENT_IS_READY);
     b74:	e8650004 	lwi	r3, r5, 4
     b78:	b0001111 	imm	4369
     b7c:	a8631111 	xori	r3, r3, 4369
     b80:	be030034 	beqid	r3, 52		// bb4
     b84:	60c60004 	muli	r6, r6, 4
     b88:	b0000000 	imm	0
     b8c:	30a0d5b8 	addik	r5, r0, -10824	// d5b8 <__rodata_start>
     b90:	b0000000 	imm	0
     b94:	b9f406ac 	brlid	r15, 1708	// 1240 <Xil_Assert>
     b98:	30c001c5 	addik	r6, r0, 453
     b9c:	30600001 	addik	r3, r0, 1
     ba0:	b0000000 	imm	0
     ba4:	f860ec58 	swi	r3, r0, -5032	// ec58 <Xil_AssertStatus>
	 * register and then modifying only the specified interrupt id enable
	 */
	CurrentIER = XIntc_In32(InstancePtr->BaseAddress + XIN_IER_OFFSET);
	XIntc_Out32(InstancePtr->BaseAddress + XIN_IER_OFFSET,
		    (CurrentIER | Mask));
}
     ba8:	e9e10000 	lwi	r15, r1, 0
     bac:	b60f0008 	rtsd	r15, 8
     bb0:	3021001c 	addik	r1, r1, 28

	/*
	 * Enable the selected interrupt source by reading the interrupt enable
	 * register and then modifying only the specified interrupt id enable
	 */
	CurrentIER = XIntc_In32(InstancePtr->BaseAddress + XIN_IER_OFFSET);
     bb4:	e8650000 	lwi	r3, r5, 0

	/*
	 * The Id is used to create the appropriate mask for the
	 * desired bit position. Id currently limited to 0 - 31
	 */
	Mask = XIntc_BitPosMask[Id];
     bb8:	b0000000 	imm	0
     bbc:	30c6ec40 	addik	r6, r6, -5056

	/*
	 * Enable the selected interrupt source by reading the interrupt enable
	 * register and then modifying only the specified interrupt id enable
	 */
	CurrentIER = XIntc_In32(InstancePtr->BaseAddress + XIN_IER_OFFSET);
     bc0:	e8a30008 	lwi	r5, r3, 8
	XIntc_Out32(InstancePtr->BaseAddress + XIN_IER_OFFSET,
     bc4:	e8860000 	lwi	r4, r6, 0
     bc8:	80852000 	or	r4, r5, r4
     bcc:	f8830008 	swi	r4, r3, 8
		    (CurrentIER | Mask));
}
     bd0:	e9e10000 	lwi	r15, r1, 0
     bd4:	b60f0008 	rtsd	r15, 8
     bd8:	3021001c 	addik	r1, r1, 28

	/*
	 * Assert the arguments
	 */
	Xil_AssertVoid(InstancePtr != NULL);
	Xil_AssertVoid(Id < XPAR_INTC_MAX_NUM_INTR_INPUTS);
     bdc:	b0000000 	imm	0
     be0:	30a0d5b8 	addik	r5, r0, -10824	// d5b8 <__rodata_start>
     be4:	b0000000 	imm	0
     be8:	b9f40658 	brlid	r15, 1624	// 1240 <Xil_Assert>
     bec:	30c001c4 	addik	r6, r0, 452
	 * register and then modifying only the specified interrupt id enable
	 */
	CurrentIER = XIntc_In32(InstancePtr->BaseAddress + XIN_IER_OFFSET);
	XIntc_Out32(InstancePtr->BaseAddress + XIN_IER_OFFSET,
		    (CurrentIER | Mask));
}
     bf0:	e9e10000 	lwi	r15, r1, 0

	/*
	 * Assert the arguments
	 */
	Xil_AssertVoid(InstancePtr != NULL);
	Xil_AssertVoid(Id < XPAR_INTC_MAX_NUM_INTR_INPUTS);
     bf4:	30600001 	addik	r3, r0, 1
     bf8:	b0000000 	imm	0
     bfc:	f860ec58 	swi	r3, r0, -5032	// ec58 <Xil_AssertStatus>
	 * register and then modifying only the specified interrupt id enable
	 */
	CurrentIER = XIntc_In32(InstancePtr->BaseAddress + XIN_IER_OFFSET);
	XIntc_Out32(InstancePtr->BaseAddress + XIN_IER_OFFSET,
		    (CurrentIER | Mask));
}
     c00:	b60f0008 	rtsd	r15, 8
     c04:	3021001c 	addik	r1, r1, 28
	u32 Mask;

	/*
	 * Assert the arguments
	 */
	Xil_AssertVoid(InstancePtr != NULL);
     c08:	b0000000 	imm	0
     c0c:	30a0d5b8 	addik	r5, r0, -10824	// d5b8 <__rodata_start>
     c10:	b0000000 	imm	0
     c14:	b9f4062c 	brlid	r15, 1580	// 1240 <Xil_Assert>
     c18:	30c001c3 	addik	r6, r0, 451
     c1c:	30600001 	addik	r3, r0, 1
     c20:	b0000000 	imm	0
     c24:	f860ec58 	swi	r3, r0, -5032	// ec58 <Xil_AssertStatus>
	 * register and then modifying only the specified interrupt id enable
	 */
	CurrentIER = XIntc_In32(InstancePtr->BaseAddress + XIN_IER_OFFSET);
	XIntc_Out32(InstancePtr->BaseAddress + XIN_IER_OFFSET,
		    (CurrentIER | Mask));
}
     c28:	b810ff84 	brid	-124		// bac
     c2c:	e9e10000 	lwi	r15, r1, 0

00000c30 <XIntc_Disable>:
*
* @note		None.
*
****************************************************************************/
void XIntc_Disable(XIntc * InstancePtr, u8 Id)
{
     c30:	3021ffe4 	addik	r1, r1, -28
	u32 Mask;

	/*
	 * Assert the arguments
	 */
	Xil_AssertVoid(InstancePtr != NULL);
     c34:	be0500b4 	beqid	r5, 180		// ce8
     c38:	f9e10000 	swi	r15, r1, 0
	Xil_AssertVoid(Id < XPAR_INTC_MAX_NUM_INTR_INPUTS);
     c3c:	30600004 	addik	r3, r0, 4
	u32 Mask;

	/*
	 * Assert the arguments
	 */
	Xil_AssertVoid(InstancePtr != NULL);
     c40:	b0000000 	imm	0
     c44:	f800ec58 	swi	r0, r0, -5032	// ec58 <Xil_AssertStatus>
	Xil_AssertVoid(Id < XPAR_INTC_MAX_NUM_INTR_INPUTS);
     c48:	14661803 	cmpu	r3, r6, r3
     c4c:	bc430070 	blti	r3, 112		// cbc
	Xil_AssertVoid(InstancePtr->IsReady == XIL_COMPONENT_IS_READY);
     c50:	e8650004 	lwi	r3, r5, 4
     c54:	b0001111 	imm	4369
     c58:	a8631111 	xori	r3, r3, 4369
     c5c:	be030034 	beqid	r3, 52		// c90
     c60:	60c60004 	muli	r6, r6, 4
     c64:	b0000000 	imm	0
     c68:	30a0d5b8 	addik	r5, r0, -10824	// d5b8 <__rodata_start>
     c6c:	b0000000 	imm	0
     c70:	b9f405d0 	brlid	r15, 1488	// 1240 <Xil_Assert>
     c74:	30c001f2 	addik	r6, r0, 498
     c78:	30600001 	addik	r3, r0, 1
     c7c:	b0000000 	imm	0
     c80:	f860ec58 	swi	r3, r0, -5032	// ec58 <Xil_AssertStatus>
	 * register and then modifying only the specified interrupt id
	 */
	CurrentIER = XIntc_In32(InstancePtr->BaseAddress + XIN_IER_OFFSET);
	XIntc_Out32(InstancePtr->BaseAddress + XIN_IER_OFFSET,
		    (CurrentIER & ~Mask));
}
     c84:	e9e10000 	lwi	r15, r1, 0
     c88:	b60f0008 	rtsd	r15, 8
     c8c:	3021001c 	addik	r1, r1, 28

	/*
	 * Disable the selected interrupt source by reading the interrupt enable
	 * register and then modifying only the specified interrupt id
	 */
	CurrentIER = XIntc_In32(InstancePtr->BaseAddress + XIN_IER_OFFSET);
     c90:	e8650000 	lwi	r3, r5, 0

	/*
	 * The Id is used to create the appropriate mask for the
	 * desired bit position. Id currently limited to 0 - 31
	 */
	Mask = XIntc_BitPosMask[Id];
     c94:	b0000000 	imm	0
     c98:	30c6ec40 	addik	r6, r6, -5056
	/*
	 * Disable the selected interrupt source by reading the interrupt enable
	 * register and then modifying only the specified interrupt id
	 */
	CurrentIER = XIntc_In32(InstancePtr->BaseAddress + XIN_IER_OFFSET);
	XIntc_Out32(InstancePtr->BaseAddress + XIN_IER_OFFSET,
     c9c:	e8860000 	lwi	r4, r6, 0

	/*
	 * Disable the selected interrupt source by reading the interrupt enable
	 * register and then modifying only the specified interrupt id
	 */
	CurrentIER = XIntc_In32(InstancePtr->BaseAddress + XIN_IER_OFFSET);
     ca0:	e8a30008 	lwi	r5, r3, 8
	XIntc_Out32(InstancePtr->BaseAddress + XIN_IER_OFFSET,
     ca4:	a884ffff 	xori	r4, r4, -1
     ca8:	84842800 	and	r4, r4, r5
     cac:	f8830008 	swi	r4, r3, 8
		    (CurrentIER & ~Mask));
}
     cb0:	e9e10000 	lwi	r15, r1, 0
     cb4:	b60f0008 	rtsd	r15, 8
     cb8:	3021001c 	addik	r1, r1, 28

	/*
	 * Assert the arguments
	 */
	Xil_AssertVoid(InstancePtr != NULL);
	Xil_AssertVoid(Id < XPAR_INTC_MAX_NUM_INTR_INPUTS);
     cbc:	b0000000 	imm	0
     cc0:	30a0d5b8 	addik	r5, r0, -10824	// d5b8 <__rodata_start>
     cc4:	b0000000 	imm	0
     cc8:	b9f40578 	brlid	r15, 1400	// 1240 <Xil_Assert>
     ccc:	30c001f1 	addik	r6, r0, 497
	 * register and then modifying only the specified interrupt id
	 */
	CurrentIER = XIntc_In32(InstancePtr->BaseAddress + XIN_IER_OFFSET);
	XIntc_Out32(InstancePtr->BaseAddress + XIN_IER_OFFSET,
		    (CurrentIER & ~Mask));
}
     cd0:	e9e10000 	lwi	r15, r1, 0

	/*
	 * Assert the arguments
	 */
	Xil_AssertVoid(InstancePtr != NULL);
	Xil_AssertVoid(Id < XPAR_INTC_MAX_NUM_INTR_INPUTS);
     cd4:	30600001 	addik	r3, r0, 1
     cd8:	b0000000 	imm	0
     cdc:	f860ec58 	swi	r3, r0, -5032	// ec58 <Xil_AssertStatus>
	 * register and then modifying only the specified interrupt id
	 */
	CurrentIER = XIntc_In32(InstancePtr->BaseAddress + XIN_IER_OFFSET);
	XIntc_Out32(InstancePtr->BaseAddress + XIN_IER_OFFSET,
		    (CurrentIER & ~Mask));
}
     ce0:	b60f0008 	rtsd	r15, 8
     ce4:	3021001c 	addik	r1, r1, 28
	u32 Mask;

	/*
	 * Assert the arguments
	 */
	Xil_AssertVoid(InstancePtr != NULL);
     ce8:	b0000000 	imm	0
     cec:	30a0d5b8 	addik	r5, r0, -10824	// d5b8 <__rodata_start>
     cf0:	b0000000 	imm	0
     cf4:	b9f4054c 	brlid	r15, 1356	// 1240 <Xil_Assert>
     cf8:	30c001f0 	addik	r6, r0, 496
     cfc:	30600001 	addik	r3, r0, 1
     d00:	b0000000 	imm	0
     d04:	f860ec58 	swi	r3, r0, -5032	// ec58 <Xil_AssertStatus>
	 * register and then modifying only the specified interrupt id
	 */
	CurrentIER = XIntc_In32(InstancePtr->BaseAddress + XIN_IER_OFFSET);
	XIntc_Out32(InstancePtr->BaseAddress + XIN_IER_OFFSET,
		    (CurrentIER & ~Mask));
}
     d08:	b810ff80 	brid	-128		// c88
     d0c:	e9e10000 	lwi	r15, r1, 0

00000d10 <XIntc_Acknowledge>:
*
* @note		None.
*
****************************************************************************/
void XIntc_Acknowledge(XIntc * InstancePtr, u8 Id)
{
     d10:	3021ffe4 	addik	r1, r1, -28
	u32 Mask;

	/*
	 * Assert the arguments
	 */
	Xil_AssertVoid(InstancePtr != NULL);
     d14:	be0500a8 	beqid	r5, 168		// dbc
     d18:	f9e10000 	swi	r15, r1, 0
	Xil_AssertVoid(Id < XPAR_INTC_MAX_NUM_INTR_INPUTS);
     d1c:	30600004 	addik	r3, r0, 4
	u32 Mask;

	/*
	 * Assert the arguments
	 */
	Xil_AssertVoid(InstancePtr != NULL);
     d20:	b0000000 	imm	0
     d24:	f800ec58 	swi	r0, r0, -5032	// ec58 <Xil_AssertStatus>
	Xil_AssertVoid(Id < XPAR_INTC_MAX_NUM_INTR_INPUTS);
     d28:	14661803 	cmpu	r3, r6, r3
     d2c:	bc430064 	blti	r3, 100		// d90
	Xil_AssertVoid(InstancePtr->IsReady == XIL_COMPONENT_IS_READY);
     d30:	e8650004 	lwi	r3, r5, 4
     d34:	b0001111 	imm	4369
     d38:	a8631111 	xori	r3, r3, 4369
     d3c:	be030034 	beqid	r3, 52		// d70
     d40:	60c60004 	muli	r6, r6, 4
     d44:	b0000000 	imm	0
     d48:	30a0d5b8 	addik	r5, r0, -10824	// d5b8 <__rodata_start>
     d4c:	b0000000 	imm	0
     d50:	b9f404f0 	brlid	r15, 1264	// 1240 <Xil_Assert>
     d54:	30c0021d 	addik	r6, r0, 541
     d58:	30600001 	addik	r3, r0, 1
     d5c:	b0000000 	imm	0
     d60:	f860ec58 	swi	r3, r0, -5032	// ec58 <Xil_AssertStatus>
	 * Acknowledge the selected interrupt source, no read of the acknowledge
	 * register is necessary since only the bits set in the mask will be
	 * affected by the write
	 */
	XIntc_Out32(InstancePtr->BaseAddress + XIN_IAR_OFFSET, Mask);
}
     d64:	e9e10000 	lwi	r15, r1, 0
     d68:	b60f0008 	rtsd	r15, 8
     d6c:	3021001c 	addik	r1, r1, 28

	/*
	 * The Id is used to create the appropriate mask for the
	 * desired bit position. Id currently limited to 0 - 31
	 */
	Mask = XIntc_BitPosMask[Id];
     d70:	b0000000 	imm	0
     d74:	30c6ec40 	addik	r6, r6, -5056
     d78:	e8860000 	lwi	r4, r6, 0
	/*
	 * Acknowledge the selected interrupt source, no read of the acknowledge
	 * register is necessary since only the bits set in the mask will be
	 * affected by the write
	 */
	XIntc_Out32(InstancePtr->BaseAddress + XIN_IAR_OFFSET, Mask);
     d7c:	e8650000 	lwi	r3, r5, 0
     d80:	f883000c 	swi	r4, r3, 12
}
     d84:	e9e10000 	lwi	r15, r1, 0
     d88:	b60f0008 	rtsd	r15, 8
     d8c:	3021001c 	addik	r1, r1, 28

	/*
	 * Assert the arguments
	 */
	Xil_AssertVoid(InstancePtr != NULL);
	Xil_AssertVoid(Id < XPAR_INTC_MAX_NUM_INTR_INPUTS);
     d90:	b0000000 	imm	0
     d94:	30a0d5b8 	addik	r5, r0, -10824	// d5b8 <__rodata_start>
     d98:	b0000000 	imm	0
     d9c:	b9f404a4 	brlid	r15, 1188	// 1240 <Xil_Assert>
     da0:	30c0021c 	addik	r6, r0, 540
	 * Acknowledge the selected interrupt source, no read of the acknowledge
	 * register is necessary since only the bits set in the mask will be
	 * affected by the write
	 */
	XIntc_Out32(InstancePtr->BaseAddress + XIN_IAR_OFFSET, Mask);
}
     da4:	e9e10000 	lwi	r15, r1, 0

	/*
	 * Assert the arguments
	 */
	Xil_AssertVoid(InstancePtr != NULL);
	Xil_AssertVoid(Id < XPAR_INTC_MAX_NUM_INTR_INPUTS);
     da8:	30600001 	addik	r3, r0, 1
     dac:	b0000000 	imm	0
     db0:	f860ec58 	swi	r3, r0, -5032	// ec58 <Xil_AssertStatus>
	 * Acknowledge the selected interrupt source, no read of the acknowledge
	 * register is necessary since only the bits set in the mask will be
	 * affected by the write
	 */
	XIntc_Out32(InstancePtr->BaseAddress + XIN_IAR_OFFSET, Mask);
}
     db4:	b60f0008 	rtsd	r15, 8
     db8:	3021001c 	addik	r1, r1, 28
	u32 Mask;

	/*
	 * Assert the arguments
	 */
	Xil_AssertVoid(InstancePtr != NULL);
     dbc:	b0000000 	imm	0
     dc0:	30a0d5b8 	addik	r5, r0, -10824	// d5b8 <__rodata_start>
     dc4:	b0000000 	imm	0
     dc8:	b9f40478 	brlid	r15, 1144	// 1240 <Xil_Assert>
     dcc:	30c0021b 	addik	r6, r0, 539
     dd0:	30600001 	addik	r3, r0, 1
     dd4:	b0000000 	imm	0
     dd8:	f860ec58 	swi	r3, r0, -5032	// ec58 <Xil_AssertStatus>
     ddc:	b810ff8c 	brid	-116		// d68
     de0:	e9e10000 	lwi	r15, r1, 0

00000de4 <XIntc_LookupConfig>:
{
	XIntc_Config *CfgPtr = NULL;
	int Index;

	for (Index = 0; Index < XPAR_XINTC_NUM_INSTANCES; Index++) {
		if (XIntc_ConfigTable[Index].DeviceId == DeviceId) {
     de4:	b0000000 	imm	0
     de8:	e480e3a8 	lhui	r4, r0, -7256	// e3a8 <XIntc_ConfigTable>
     dec:	88a42800 	xor	r5, r4, r5
     df0:	be250010 	bneid	r5, 16		// e00
     df4:	10600000 	addk	r3, r0, r0
			CfgPtr = &XIntc_ConfigTable[Index];
     df8:	b0000000 	imm	0
     dfc:	3060e3a8 	addik	r3, r0, -7256	// e3a8 <XIntc_ConfigTable>
			break;
		}
	}

	return CfgPtr;
}
     e00:	b60f0008 	rtsd	r15, 8
     e04:	80000000 	or	r0, r0, r0

00000e08 <XIntc_ConnectFastHandler>:
* that was previously connected.
*
****************************************************************************/
int XIntc_ConnectFastHandler(XIntc *InstancePtr, u8 Id,
				XFastInterruptHandler Handler)
{
     e08:	3021ffd0 	addik	r1, r1, -48
     e0c:	fa610020 	swi	r19, r1, 32
     e10:	fac10024 	swi	r22, r1, 36
     e14:	f9e10000 	swi	r15, r1, 0
     e18:	fae10028 	swi	r23, r1, 40
     e1c:	fb01002c 	swi	r24, r1, 44
     e20:	12650000 	addk	r19, r5, r0
	u32 Mask;

	/*
	 * Assert the arguments
	 */
	Xil_AssertNonvoid(InstancePtr != NULL);
     e24:	be050198 	beqid	r5, 408		// fbc
     e28:	12c60000 	addk	r22, r6, r0
	Xil_AssertNonvoid(Id < XPAR_INTC_MAX_NUM_INTR_INPUTS);
     e2c:	30600004 	addik	r3, r0, 4
	u32 Mask;

	/*
	 * Assert the arguments
	 */
	Xil_AssertNonvoid(InstancePtr != NULL);
     e30:	b0000000 	imm	0
     e34:	f800ec58 	swi	r0, r0, -5032	// ec58 <Xil_AssertStatus>
	Xil_AssertNonvoid(Id < XPAR_INTC_MAX_NUM_INTR_INPUTS);
     e38:	14661803 	cmpu	r3, r6, r3
     e3c:	bc430100 	blti	r3, 256		// f3c
	Xil_AssertNonvoid(Handler != NULL);
     e40:	bc0701a4 	beqi	r7, 420		// fe4
	Xil_AssertNonvoid(InstancePtr->IsReady == XIL_COMPONENT_IS_READY);
     e44:	e8650004 	lwi	r3, r5, 4
     e48:	b0001111 	imm	4369
     e4c:	a8631111 	xori	r3, r3, 4369
     e50:	bc23006c 	bnei	r3, 108		// ebc
	Xil_AssertNonvoid(InstancePtr->CfgPtr->FastIntr == TRUE);
     e54:	e8650010 	lwi	r3, r5, 16
     e58:	e863000c 	lwi	r3, r3, 12
     e5c:	a8630001 	xori	r3, r3, 1
     e60:	be23011c 	bneid	r3, 284		// f7c
     e64:	63060004 	muli	r24, r6, 4


	/* Get the Enabled Interrupts */
	CurrentIER = XIntc_In32(InstancePtr->BaseAddress + XIN_IER_OFFSET);
     e68:	e8650000 	lwi	r3, r5, 0
	Mask = XIntc_BitPosMask[Id];/* Convert from integer id to bit mask */
     e6c:	b0000000 	imm	0
     e70:	3118ec40 	addik	r8, r24, -5056
	Xil_AssertNonvoid(InstancePtr->IsReady == XIL_COMPONENT_IS_READY);
	Xil_AssertNonvoid(InstancePtr->CfgPtr->FastIntr == TRUE);


	/* Get the Enabled Interrupts */
	CurrentIER = XIntc_In32(InstancePtr->BaseAddress + XIN_IER_OFFSET);
     e74:	e8830008 	lwi	r4, r3, 8
	Mask = XIntc_BitPosMask[Id];/* Convert from integer id to bit mask */
     e78:	eae80000 	lwi	r23, r8, 0


	/* Disable the Interrupt if it was enabled before calling this function */
	if (CurrentIER & Mask) {
     e7c:	84972000 	and	r4, r23, r4
     e80:	be24007c 	bneid	r4, 124		// efc
     e84:	30630100 	addik	r3, r3, 256
		XIntc_Disable(InstancePtr, Id);
	}

	XIntc_Out32(InstancePtr->BaseAddress + XIN_IVAR_OFFSET + (Id * 4),
     e88:	d8f81800 	sw	r7, r24, r3
		    	(u32) Handler);

	Imr = XIntc_In32(InstancePtr->BaseAddress + XIN_IMR_OFFSET);
     e8c:	e8650000 	lwi	r3, r5, 0
     e90:	e8830020 	lwi	r4, r3, 32
	XIntc_Out32(InstancePtr->BaseAddress + XIN_IMR_OFFSET,
     e94:	82f72000 	or	r23, r23, r4
     e98:	fae30020 	swi	r23, r3, 32
	if (CurrentIER & Mask) {
		XIntc_Enable(InstancePtr, Id);
	}
	return XST_SUCCESS;

}
     e9c:	e9e10000 	lwi	r15, r1, 0
     ea0:	ea610020 	lwi	r19, r1, 32
     ea4:	eac10024 	lwi	r22, r1, 36
     ea8:	eae10028 	lwi	r23, r1, 40
     eac:	eb01002c 	lwi	r24, r1, 44
     eb0:	10600000 	addk	r3, r0, r0
     eb4:	b60f0008 	rtsd	r15, 8
     eb8:	30210030 	addik	r1, r1, 48
	 * Assert the arguments
	 */
	Xil_AssertNonvoid(InstancePtr != NULL);
	Xil_AssertNonvoid(Id < XPAR_INTC_MAX_NUM_INTR_INPUTS);
	Xil_AssertNonvoid(Handler != NULL);
	Xil_AssertNonvoid(InstancePtr->IsReady == XIL_COMPONENT_IS_READY);
     ebc:	b0000000 	imm	0
     ec0:	30a0d5b8 	addik	r5, r0, -10824	// d5b8 <__rodata_start>
     ec4:	b0000000 	imm	0
     ec8:	b9f40378 	brlid	r15, 888	// 1240 <Xil_Assert>
     ecc:	30c00289 	addik	r6, r0, 649
     ed0:	30600001 	addik	r3, r0, 1
     ed4:	b0000000 	imm	0
     ed8:	f860ec58 	swi	r3, r0, -5032	// ec58 <Xil_AssertStatus>
	if (CurrentIER & Mask) {
		XIntc_Enable(InstancePtr, Id);
	}
	return XST_SUCCESS;

}
     edc:	e9e10000 	lwi	r15, r1, 0
     ee0:	ea610020 	lwi	r19, r1, 32
     ee4:	eac10024 	lwi	r22, r1, 36
     ee8:	eae10028 	lwi	r23, r1, 40
     eec:	eb01002c 	lwi	r24, r1, 44
     ef0:	10600000 	addk	r3, r0, r0
     ef4:	b60f0008 	rtsd	r15, 8
     ef8:	30210030 	addik	r1, r1, 48
	Mask = XIntc_BitPosMask[Id];/* Convert from integer id to bit mask */


	/* Disable the Interrupt if it was enabled before calling this function */
	if (CurrentIER & Mask) {
		XIntc_Disable(InstancePtr, Id);
     efc:	b9f4fd34 	brlid	r15, -716	// c30 <XIntc_Disable>
     f00:	f8e1001c 	swi	r7, r1, 28
	}

	XIntc_Out32(InstancePtr->BaseAddress + XIN_IVAR_OFFSET + (Id * 4),
     f04:	e8730000 	lwi	r3, r19, 0
     f08:	e8e1001c 	lwi	r7, r1, 28
		    Imr | Mask);


	/* Enable the Interrupt if it was enabled before calling this function */
	if (CurrentIER & Mask) {
		XIntc_Enable(InstancePtr, Id);
     f0c:	10b30000 	addk	r5, r19, r0
	/* Disable the Interrupt if it was enabled before calling this function */
	if (CurrentIER & Mask) {
		XIntc_Disable(InstancePtr, Id);
	}

	XIntc_Out32(InstancePtr->BaseAddress + XIN_IVAR_OFFSET + (Id * 4),
     f10:	30630100 	addik	r3, r3, 256
     f14:	d8f81800 	sw	r7, r24, r3
		    	(u32) Handler);

	Imr = XIntc_In32(InstancePtr->BaseAddress + XIN_IMR_OFFSET);
     f18:	e8730000 	lwi	r3, r19, 0
		    Imr | Mask);


	/* Enable the Interrupt if it was enabled before calling this function */
	if (CurrentIER & Mask) {
		XIntc_Enable(InstancePtr, Id);
     f1c:	10d60000 	addk	r6, r22, r0
	}

	XIntc_Out32(InstancePtr->BaseAddress + XIN_IVAR_OFFSET + (Id * 4),
		    	(u32) Handler);

	Imr = XIntc_In32(InstancePtr->BaseAddress + XIN_IMR_OFFSET);
     f20:	e8830020 	lwi	r4, r3, 32
	XIntc_Out32(InstancePtr->BaseAddress + XIN_IMR_OFFSET,
     f24:	82f72000 	or	r23, r23, r4
     f28:	fae30020 	swi	r23, r3, 32
		    Imr | Mask);


	/* Enable the Interrupt if it was enabled before calling this function */
	if (CurrentIER & Mask) {
		XIntc_Enable(InstancePtr, Id);
     f2c:	b9f4fc28 	brlid	r15, -984	// b54 <XIntc_Enable>
     f30:	80000000 	or	r0, r0, r0
	}
	return XST_SUCCESS;

}
     f34:	b810ffac 	brid	-84		// ee0
     f38:	e9e10000 	lwi	r15, r1, 0

	/*
	 * Assert the arguments
	 */
	Xil_AssertNonvoid(InstancePtr != NULL);
	Xil_AssertNonvoid(Id < XPAR_INTC_MAX_NUM_INTR_INPUTS);
     f3c:	b0000000 	imm	0
     f40:	30a0d5b8 	addik	r5, r0, -10824	// d5b8 <__rodata_start>
     f44:	b0000000 	imm	0
     f48:	b9f402f8 	brlid	r15, 760	// 1240 <Xil_Assert>
     f4c:	30c00287 	addik	r6, r0, 647
	if (CurrentIER & Mask) {
		XIntc_Enable(InstancePtr, Id);
	}
	return XST_SUCCESS;

}
     f50:	e9e10000 	lwi	r15, r1, 0
     f54:	ea610020 	lwi	r19, r1, 32
     f58:	eac10024 	lwi	r22, r1, 36
     f5c:	eae10028 	lwi	r23, r1, 40
     f60:	eb01002c 	lwi	r24, r1, 44

	/*
	 * Assert the arguments
	 */
	Xil_AssertNonvoid(InstancePtr != NULL);
	Xil_AssertNonvoid(Id < XPAR_INTC_MAX_NUM_INTR_INPUTS);
     f64:	30600001 	addik	r3, r0, 1
     f68:	b0000000 	imm	0
     f6c:	f860ec58 	swi	r3, r0, -5032	// ec58 <Xil_AssertStatus>
	if (CurrentIER & Mask) {
		XIntc_Enable(InstancePtr, Id);
	}
	return XST_SUCCESS;

}
     f70:	10600000 	addk	r3, r0, r0
     f74:	b60f0008 	rtsd	r15, 8
     f78:	30210030 	addik	r1, r1, 48
	 */
	Xil_AssertNonvoid(InstancePtr != NULL);
	Xil_AssertNonvoid(Id < XPAR_INTC_MAX_NUM_INTR_INPUTS);
	Xil_AssertNonvoid(Handler != NULL);
	Xil_AssertNonvoid(InstancePtr->IsReady == XIL_COMPONENT_IS_READY);
	Xil_AssertNonvoid(InstancePtr->CfgPtr->FastIntr == TRUE);
     f7c:	b0000000 	imm	0
     f80:	30a0d5b8 	addik	r5, r0, -10824	// d5b8 <__rodata_start>
     f84:	b0000000 	imm	0
     f88:	b9f402b8 	brlid	r15, 696	// 1240 <Xil_Assert>
     f8c:	30c0028a 	addik	r6, r0, 650
	if (CurrentIER & Mask) {
		XIntc_Enable(InstancePtr, Id);
	}
	return XST_SUCCESS;

}
     f90:	e9e10000 	lwi	r15, r1, 0
     f94:	ea610020 	lwi	r19, r1, 32
     f98:	eac10024 	lwi	r22, r1, 36
     f9c:	eae10028 	lwi	r23, r1, 40
     fa0:	eb01002c 	lwi	r24, r1, 44
	 */
	Xil_AssertNonvoid(InstancePtr != NULL);
	Xil_AssertNonvoid(Id < XPAR_INTC_MAX_NUM_INTR_INPUTS);
	Xil_AssertNonvoid(Handler != NULL);
	Xil_AssertNonvoid(InstancePtr->IsReady == XIL_COMPONENT_IS_READY);
	Xil_AssertNonvoid(InstancePtr->CfgPtr->FastIntr == TRUE);
     fa4:	30600001 	addik	r3, r0, 1
     fa8:	b0000000 	imm	0
     fac:	f860ec58 	swi	r3, r0, -5032	// ec58 <Xil_AssertStatus>
	if (CurrentIER & Mask) {
		XIntc_Enable(InstancePtr, Id);
	}
	return XST_SUCCESS;

}
     fb0:	10600000 	addk	r3, r0, r0
     fb4:	b60f0008 	rtsd	r15, 8
     fb8:	30210030 	addik	r1, r1, 48
	u32 Mask;

	/*
	 * Assert the arguments
	 */
	Xil_AssertNonvoid(InstancePtr != NULL);
     fbc:	b0000000 	imm	0
     fc0:	30a0d5b8 	addik	r5, r0, -10824	// d5b8 <__rodata_start>
     fc4:	b0000000 	imm	0
     fc8:	b9f40278 	brlid	r15, 632	// 1240 <Xil_Assert>
     fcc:	30c00286 	addik	r6, r0, 646
     fd0:	30600001 	addik	r3, r0, 1
     fd4:	b0000000 	imm	0
     fd8:	f860ec58 	swi	r3, r0, -5032	// ec58 <Xil_AssertStatus>
     fdc:	b810ff04 	brid	-252		// ee0
     fe0:	e9e10000 	lwi	r15, r1, 0
	Xil_AssertNonvoid(Id < XPAR_INTC_MAX_NUM_INTR_INPUTS);
	Xil_AssertNonvoid(Handler != NULL);
     fe4:	b0000000 	imm	0
     fe8:	30a0d5b8 	addik	r5, r0, -10824	// d5b8 <__rodata_start>
     fec:	b0000000 	imm	0
     ff0:	b9f40250 	brlid	r15, 592	// 1240 <Xil_Assert>
     ff4:	30c00288 	addik	r6, r0, 648
     ff8:	30600001 	addik	r3, r0, 1
     ffc:	b0000000 	imm	0
    1000:	f860ec58 	swi	r3, r0, -5032	// ec58 <Xil_AssertStatus>
    1004:	b810fedc 	brid	-292		// ee0
    1008:	e9e10000 	lwi	r15, r1, 0

0000100c <XIntc_SetNormalIntrMode>:
*
* @note		None.
*
****************************************************************************/
void XIntc_SetNormalIntrMode(XIntc *InstancePtr, u8 Id)
{
    100c:	3021ffd0 	addik	r1, r1, -48
    1010:	fa61001c 	swi	r19, r1, 28
    1014:	fac10020 	swi	r22, r1, 32
    1018:	f9e10000 	swi	r15, r1, 0
    101c:	fae10024 	swi	r23, r1, 36
    1020:	fb010028 	swi	r24, r1, 40
    1024:	fb21002c 	swi	r25, r1, 44
    1028:	12650000 	addk	r19, r5, r0
	u32 Mask;

	/*
	 * Assert the arguments
	 */
	Xil_AssertVoid(InstancePtr != NULL);
    102c:	be05019c 	beqid	r5, 412		// 11c8
    1030:	12c60000 	addk	r22, r6, r0
	Xil_AssertVoid(Id < XPAR_INTC_MAX_NUM_INTR_INPUTS);
    1034:	30600004 	addik	r3, r0, 4
	u32 Mask;

	/*
	 * Assert the arguments
	 */
	Xil_AssertVoid(InstancePtr != NULL);
    1038:	b0000000 	imm	0
    103c:	f800ec58 	swi	r0, r0, -5032	// ec58 <Xil_AssertStatus>
	Xil_AssertVoid(Id < XPAR_INTC_MAX_NUM_INTR_INPUTS);
    1040:	14661803 	cmpu	r3, r6, r3
    1044:	bc430104 	blti	r3, 260		// 1148
	Xil_AssertVoid(InstancePtr->IsReady == XIL_COMPONENT_IS_READY);
    1048:	e8650004 	lwi	r3, r5, 4
    104c:	b0001111 	imm	4369
    1050:	a8631111 	xori	r3, r3, 4369
    1054:	bc230090 	bnei	r3, 144		// 10e4
	Xil_AssertVoid(InstancePtr->CfgPtr->FastIntr == TRUE);
    1058:	e8650010 	lwi	r3, r5, 16
    105c:	e883000c 	lwi	r4, r3, 12
    1060:	a8840001 	xori	r4, r4, 1
    1064:	be240124 	bneid	r4, 292		// 1188
    1068:	62e60004 	muli	r23, r6, 4


	/* Get the Enabled Interrupts */
	CurrentIER = XIntc_In32(InstancePtr->BaseAddress + XIN_IER_OFFSET);
    106c:	e8850000 	lwi	r4, r5, 0
	Mask = XIntc_BitPosMask[Id];/* Convert from integer id to bit mask */
    1070:	b0000000 	imm	0
    1074:	30f7ec40 	addik	r7, r23, -5056
	Xil_AssertVoid(InstancePtr->IsReady == XIL_COMPONENT_IS_READY);
	Xil_AssertVoid(InstancePtr->CfgPtr->FastIntr == TRUE);


	/* Get the Enabled Interrupts */
	CurrentIER = XIntc_In32(InstancePtr->BaseAddress + XIN_IER_OFFSET);
    1078:	eb040008 	lwi	r24, r4, 8
	Mask = XIntc_BitPosMask[Id];/* Convert from integer id to bit mask */
    107c:	eb270000 	lwi	r25, r7, 0


	/* Disable the Interrupt if it was enabled before calling this function */
	if (CurrentIER & Mask) {
    1080:	8719c000 	and	r24, r25, r24
    1084:	bc3800b0 	bnei	r24, 176		// 1134
	/*
	 * Disable the selected interrupt as Fast Interrupt by reading the
	 * interrupt mode register and then modifying only the
	 * specified interrupt id
	 */
	Imr = XIntc_In32(InstancePtr->BaseAddress + XIN_IMR_OFFSET);
    1088:	e8a40020 	lwi	r5, r4, 32
	XIntc_Out32(InstancePtr->BaseAddress + XIN_IMR_OFFSET,
    108c:	ab39ffff 	xori	r25, r25, -1
    1090:	8725c800 	and	r25, r5, r25
    1094:	fb240020 	swi	r25, r4, 32
		    Imr & ~Mask);

	if (InstancePtr->CfgPtr->IntVectorAddr == 0x0) {
    1098:	e8630010 	lwi	r3, r3, 16
    109c:	be230088 	bneid	r3, 136		// 1124
    10a0:	30800010 	addik	r4, r0, 16	// 10 <_vector_interrupt>
		XIntc_Out32(InstancePtr->BaseAddress + XIN_IVAR_OFFSET + (Id * 4),
    10a4:	e8730000 	lwi	r3, r19, 0
    10a8:	30630100 	addik	r3, r3, 256
    10ac:	d8971800 	sw	r4, r23, r3
		XIntc_Out32(InstancePtr->BaseAddress + XIN_IVAR_OFFSET + (Id * 4),
		    	InstancePtr->CfgPtr->IntVectorAddr);
	}

	/* Enable the Interrupt if it was enabled before calling this function */
	if (CurrentIER & Mask) {
    10b0:	be180058 	beqid	r24, 88		// 1108
    10b4:	e9e10000 	lwi	r15, r1, 0
		XIntc_Enable(InstancePtr, Id);
    10b8:	10b30000 	addk	r5, r19, r0
    10bc:	b9f4fa98 	brlid	r15, -1384	// b54 <XIntc_Enable>
    10c0:	10d60000 	addk	r6, r22, r0
	}
}
    10c4:	e9e10000 	lwi	r15, r1, 0
    10c8:	ea61001c 	lwi	r19, r1, 28
    10cc:	eac10020 	lwi	r22, r1, 32
    10d0:	eae10024 	lwi	r23, r1, 36
    10d4:	eb010028 	lwi	r24, r1, 40
    10d8:	eb21002c 	lwi	r25, r1, 44
    10dc:	b60f0008 	rtsd	r15, 8
    10e0:	30210030 	addik	r1, r1, 48
	/*
	 * Assert the arguments
	 */
	Xil_AssertVoid(InstancePtr != NULL);
	Xil_AssertVoid(Id < XPAR_INTC_MAX_NUM_INTR_INPUTS);
	Xil_AssertVoid(InstancePtr->IsReady == XIL_COMPONENT_IS_READY);
    10e4:	b0000000 	imm	0
    10e8:	30a0d5b8 	addik	r5, r0, -10824	// d5b8 <__rodata_start>
    10ec:	b0000000 	imm	0
    10f0:	b9f40150 	brlid	r15, 336	// 1240 <Xil_Assert>
    10f4:	30c002c5 	addik	r6, r0, 709
    10f8:	30600001 	addik	r3, r0, 1
    10fc:	b0000000 	imm	0
    1100:	f860ec58 	swi	r3, r0, -5032	// ec58 <Xil_AssertStatus>

	/* Enable the Interrupt if it was enabled before calling this function */
	if (CurrentIER & Mask) {
		XIntc_Enable(InstancePtr, Id);
	}
}
    1104:	e9e10000 	lwi	r15, r1, 0
    1108:	ea61001c 	lwi	r19, r1, 28
    110c:	eac10020 	lwi	r22, r1, 32
    1110:	eae10024 	lwi	r23, r1, 36
    1114:	eb010028 	lwi	r24, r1, 40
    1118:	eb21002c 	lwi	r25, r1, 44
    111c:	b60f0008 	rtsd	r15, 8
    1120:	30210030 	addik	r1, r1, 48
	if (InstancePtr->CfgPtr->IntVectorAddr == 0x0) {
		XIntc_Out32(InstancePtr->BaseAddress + XIN_IVAR_OFFSET + (Id * 4),
		    			0x10);
	} else {

		XIntc_Out32(InstancePtr->BaseAddress + XIN_IVAR_OFFSET + (Id * 4),
    1124:	e8930000 	lwi	r4, r19, 0
    1128:	30840100 	addik	r4, r4, 256
    112c:	d8772000 	sw	r3, r23, r4
    1130:	b800ff80 	bri	-128		// 10b0
	Mask = XIntc_BitPosMask[Id];/* Convert from integer id to bit mask */


	/* Disable the Interrupt if it was enabled before calling this function */
	if (CurrentIER & Mask) {
		XIntc_Disable(InstancePtr, Id);
    1134:	b9f4fafc 	brlid	r15, -1284	// c30 <XIntc_Disable>
    1138:	80000000 	or	r0, r0, r0
    113c:	e8930000 	lwi	r4, r19, 0
    1140:	b810ff48 	brid	-184		// 1088
    1144:	e8730010 	lwi	r3, r19, 16

	/*
	 * Assert the arguments
	 */
	Xil_AssertVoid(InstancePtr != NULL);
	Xil_AssertVoid(Id < XPAR_INTC_MAX_NUM_INTR_INPUTS);
    1148:	b0000000 	imm	0
    114c:	30a0d5b8 	addik	r5, r0, -10824	// d5b8 <__rodata_start>
    1150:	b0000000 	imm	0
    1154:	b9f400ec 	brlid	r15, 236	// 1240 <Xil_Assert>
    1158:	30c002c4 	addik	r6, r0, 708

	/* Enable the Interrupt if it was enabled before calling this function */
	if (CurrentIER & Mask) {
		XIntc_Enable(InstancePtr, Id);
	}
}
    115c:	e9e10000 	lwi	r15, r1, 0
    1160:	ea61001c 	lwi	r19, r1, 28
    1164:	eac10020 	lwi	r22, r1, 32
    1168:	eae10024 	lwi	r23, r1, 36
    116c:	eb010028 	lwi	r24, r1, 40
    1170:	eb21002c 	lwi	r25, r1, 44

	/*
	 * Assert the arguments
	 */
	Xil_AssertVoid(InstancePtr != NULL);
	Xil_AssertVoid(Id < XPAR_INTC_MAX_NUM_INTR_INPUTS);
    1174:	30800001 	addik	r4, r0, 1
    1178:	b0000000 	imm	0
    117c:	f880ec58 	swi	r4, r0, -5032	// ec58 <Xil_AssertStatus>

	/* Enable the Interrupt if it was enabled before calling this function */
	if (CurrentIER & Mask) {
		XIntc_Enable(InstancePtr, Id);
	}
}
    1180:	b60f0008 	rtsd	r15, 8
    1184:	30210030 	addik	r1, r1, 48
	 * Assert the arguments
	 */
	Xil_AssertVoid(InstancePtr != NULL);
	Xil_AssertVoid(Id < XPAR_INTC_MAX_NUM_INTR_INPUTS);
	Xil_AssertVoid(InstancePtr->IsReady == XIL_COMPONENT_IS_READY);
	Xil_AssertVoid(InstancePtr->CfgPtr->FastIntr == TRUE);
    1188:	b0000000 	imm	0
    118c:	30a0d5b8 	addik	r5, r0, -10824	// d5b8 <__rodata_start>
    1190:	b0000000 	imm	0
    1194:	b9f400ac 	brlid	r15, 172	// 1240 <Xil_Assert>
    1198:	30c002c6 	addik	r6, r0, 710

	/* Enable the Interrupt if it was enabled before calling this function */
	if (CurrentIER & Mask) {
		XIntc_Enable(InstancePtr, Id);
	}
}
    119c:	e9e10000 	lwi	r15, r1, 0
    11a0:	ea61001c 	lwi	r19, r1, 28
    11a4:	eac10020 	lwi	r22, r1, 32
    11a8:	eae10024 	lwi	r23, r1, 36
    11ac:	eb010028 	lwi	r24, r1, 40
    11b0:	eb21002c 	lwi	r25, r1, 44
	 * Assert the arguments
	 */
	Xil_AssertVoid(InstancePtr != NULL);
	Xil_AssertVoid(Id < XPAR_INTC_MAX_NUM_INTR_INPUTS);
	Xil_AssertVoid(InstancePtr->IsReady == XIL_COMPONENT_IS_READY);
	Xil_AssertVoid(InstancePtr->CfgPtr->FastIntr == TRUE);
    11b4:	30800001 	addik	r4, r0, 1
    11b8:	b0000000 	imm	0
    11bc:	f880ec58 	swi	r4, r0, -5032	// ec58 <Xil_AssertStatus>

	/* Enable the Interrupt if it was enabled before calling this function */
	if (CurrentIER & Mask) {
		XIntc_Enable(InstancePtr, Id);
	}
}
    11c0:	b60f0008 	rtsd	r15, 8
    11c4:	30210030 	addik	r1, r1, 48
	u32 Mask;

	/*
	 * Assert the arguments
	 */
	Xil_AssertVoid(InstancePtr != NULL);
    11c8:	b0000000 	imm	0
    11cc:	30a0d5b8 	addik	r5, r0, -10824	// d5b8 <__rodata_start>
    11d0:	b0000000 	imm	0
    11d4:	b9f4006c 	brlid	r15, 108	// 1240 <Xil_Assert>
    11d8:	30c002c3 	addik	r6, r0, 707
    11dc:	30600001 	addik	r3, r0, 1
    11e0:	b0000000 	imm	0
    11e4:	f860ec58 	swi	r3, r0, -5032	// ec58 <Xil_AssertStatus>
    11e8:	b810ff20 	brid	-224		// 1108
    11ec:	e9e10000 	lwi	r15, r1, 0

000011f0 <XAssert>:
*
******************************************************************************/
void XAssert(char *File, int Line)
{
	/* if the callback has been set then invoke it */
	if (XAssertCallbackRoutine != NULL) {
    11f0:	b0000000 	imm	0
    11f4:	e860ea90 	lwi	r3, r0, -5488	// ea90 <XAssertCallbackRoutine>
*
* @note     None.
*
******************************************************************************/
void XAssert(char *File, int Line)
{
    11f8:	3021ffe4 	addik	r1, r1, -28
	/* if the callback has been set then invoke it */
	if (XAssertCallbackRoutine != NULL) {
    11fc:	be030010 	beqid	r3, 16		// 120c
    1200:	f9e10000 	swi	r15, r1, 0
		(*XAssertCallbackRoutine) (File, Line);
    1204:	99fc1800 	brald	r15, r3
    1208:	80000000 	or	r0, r0, r0
	}

	/* if specified, wait indefinitely such that the assert will show up
	 * in testing
	 */
	while (XWaitInAssert) {
    120c:	b0000000 	imm	0
    1210:	e860e3a0 	lwi	r3, r0, -7264	// e3a0 <XWaitInAssert>
    1214:	be230010 	bneid	r3, 16		// 1224
    1218:	e9e10000 	lwi	r15, r1, 0
	}
}
    121c:	b60f0008 	rtsd	r15, 8
    1220:	3021001c 	addik	r1, r1, 28
    1224:	b8000000 	bri	0		// 1224

00001228 <XAssertSetCallback>:
* @note     This function has no effect if NDEBUG is set
*
******************************************************************************/
void XAssertSetCallback(XAssertCallback Routine)
{
	XAssertCallbackRoutine = Routine;
    1228:	b0000000 	imm	0
    122c:	f8a0ea90 	swi	r5, r0, -5488	// ea90 <XAssertCallbackRoutine>
}
    1230:	b60f0008 	rtsd	r15, 8
    1234:	80000000 	or	r0, r0, r0

00001238 <XNullHandler>:
*
******************************************************************************/
void XNullHandler(void *NullParameter)
{
 (void) NullParameter;
}
    1238:	b60f0008 	rtsd	r15, 8
    123c:	80000000 	or	r0, r0, r0

00001240 <Xil_Assert>:
*
******************************************************************************/
void Xil_Assert(const char *File, int Line)
{
	/* if the callback has been set then invoke it */
	if (Xil_AssertCallbackRoutine != 0) {
    1240:	b0000000 	imm	0
    1244:	e860ea94 	lwi	r3, r0, -5484	// ea94 <Xil_AssertCallbackRoutine>
*
* @note     None.
*
******************************************************************************/
void Xil_Assert(const char *File, int Line)
{
    1248:	3021ffe4 	addik	r1, r1, -28
	/* if the callback has been set then invoke it */
	if (Xil_AssertCallbackRoutine != 0) {
    124c:	be030010 	beqid	r3, 16		// 125c
    1250:	f9e10000 	swi	r15, r1, 0
		(*Xil_AssertCallbackRoutine)(File, Line);
    1254:	99fc1800 	brald	r15, r3
    1258:	80000000 	or	r0, r0, r0
	}

	/* if specified, wait indefinitely such that the assert will show up
	 * in testing
	 */
	while (Xil_AssertWait) {
    125c:	b0000000 	imm	0
    1260:	e860e3a4 	lwi	r3, r0, -7260	// e3a4 <Xil_AssertWait>
    1264:	be230010 	bneid	r3, 16		// 1274
    1268:	e9e10000 	lwi	r15, r1, 0
	}
}
    126c:	b60f0008 	rtsd	r15, 8
    1270:	3021001c 	addik	r1, r1, 28
    1274:	b8000000 	bri	0		// 1274

00001278 <Xil_AssertSetCallback>:
* @note     This function has no effect if NDEBUG is set
*
******************************************************************************/
void Xil_AssertSetCallback(Xil_AssertCallback Routine)
{
	Xil_AssertCallbackRoutine = Routine;
    1278:	b0000000 	imm	0
    127c:	f8a0ea94 	swi	r5, r0, -5484	// ea94 <Xil_AssertCallbackRoutine>
}
    1280:	b60f0008 	rtsd	r15, 8
    1284:	80000000 	or	r0, r0, r0

00001288 <exit>:
    1288:	3021ffe0 	addik	r1, r1, -32
    128c:	10c00000 	addk	r6, r0, r0
    1290:	fa61001c 	swi	r19, r1, 28
    1294:	f9e10000 	swi	r15, r1, 0
    1298:	b0000000 	imm	0
    129c:	b9f4002c 	brlid	r15, 44	// 12c8 <__call_exitprocs>
    12a0:	12650000 	addk	r19, r5, r0
    12a4:	b0000000 	imm	0
    12a8:	e880d5c0 	lwi	r4, r0, -10816	// d5c0 <_global_impure_ptr>
    12ac:	e8640028 	lwi	r3, r4, 40
    12b0:	bc03000c 	beqi	r3, 12		// 12bc
    12b4:	99fc1800 	brald	r15, r3
    12b8:	10a40000 	addk	r5, r4, r0
    12bc:	b000ffff 	imm	-1
    12c0:	b9f4edc0 	brlid	r15, -4672	// 80 <_exit>
    12c4:	10b30000 	addk	r5, r19, r0

000012c8 <__call_exitprocs>:
    12c8:	3021ffb8 	addik	r1, r1, -72
    12cc:	fb810038 	swi	r28, r1, 56
    12d0:	b0000000 	imm	0
    12d4:	eb80d5c0 	lwi	r28, r0, -10816	// d5c0 <_global_impure_ptr>
    12d8:	fb21002c 	swi	r25, r1, 44
    12dc:	fbc10040 	swi	r30, r1, 64
    12e0:	fbe10044 	swi	r31, r1, 68
    12e4:	13c50000 	addk	r30, r5, r0
    12e8:	13260000 	addk	r25, r6, r0
    12ec:	b0000000 	imm	0
    12f0:	33e04f64 	addik	r31, r0, 20324	// 4f64 <free>
    12f4:	fb610034 	swi	r27, r1, 52
    12f8:	fba1003c 	swi	r29, r1, 60
    12fc:	f9e10000 	swi	r15, r1, 0
    1300:	fa61001c 	swi	r19, r1, 28
    1304:	fac10020 	swi	r22, r1, 32
    1308:	fae10024 	swi	r23, r1, 36
    130c:	fb010028 	swi	r24, r1, 40
    1310:	fb410030 	swi	r26, r1, 48
    1314:	33bc0048 	addik	r29, r28, 72
    1318:	33600001 	addik	r27, r0, 1
    131c:	eadc0048 	lwi	r22, r28, 72
    1320:	be1600cc 	beqid	r22, 204		// 13ec
    1324:	135d0000 	addk	r26, r29, r0
    1328:	e8760004 	lwi	r3, r22, 4
    132c:	3263ffff 	addik	r19, r3, -1
    1330:	be5300b8 	bltid	r19, 184		// 13e8
    1334:	eaf60088 	lwi	r23, r22, 136
    1338:	bc19011c 	beqi	r25, 284		// 1454
    133c:	bc370010 	bnei	r23, 16		// 134c
    1340:	b80000a8 	bri	168		// 13e8
    1344:	3273ffff 	addik	r19, r19, -1
    1348:	bc5300a0 	blti	r19, 160		// 13e8
    134c:	30730020 	addik	r3, r19, 32
    1350:	60630004 	muli	r3, r3, 4
    1354:	c863b800 	lw	r3, r3, r23
    1358:	8863c800 	xor	r3, r3, r25
    135c:	be23ffe8 	bneid	r3, -24		// 1344
    1360:	30f30002 	addik	r7, r19, 2
    1364:	eb160004 	lwi	r24, r22, 4
    1368:	60e70004 	muli	r7, r7, 4
    136c:	30d8ffff 	addik	r6, r24, -1
    1370:	89069800 	xor	r8, r6, r19
    1374:	be0800c0 	beqid	r8, 192		// 1434
    1378:	c887b000 	lw	r4, r7, r22
    137c:	d867b000 	sw	r3, r7, r22
    1380:	bc04ffc4 	beqi	r4, -60		// 1344
    1384:	e8d70100 	lwi	r6, r23, 256
    1388:	a653001f 	andi	r18, r19, 31
    138c:	1060d800 	addk	r3, r0, r27
    1390:	be120014 	beqid	r18, 20		// 13a4
    1394:	10630000 	addk	r3, r3, r0
    1398:	3252ffff 	addik	r18, r18, -1
    139c:	be32fffc 	bneid	r18, -4		// 1398
    13a0:	10631800 	addk	r3, r3, r3
    13a4:	84c33000 	and	r6, r3, r6
    13a8:	bc06007c 	beqi	r6, 124		// 1424
    13ac:	e8b70104 	lwi	r5, r23, 260
    13b0:	84632800 	and	r3, r3, r5
    13b4:	be03008c 	beqid	r3, 140		// 1440
    13b8:	60730004 	muli	r3, r19, 4
    13bc:	99fc2000 	brald	r15, r4
    13c0:	c8a3b800 	lw	r5, r3, r23
    13c4:	e8760004 	lwi	r3, r22, 4
    13c8:	8b03c000 	xor	r24, r3, r24
    13cc:	bc38ff50 	bnei	r24, -176		// 131c
    13d0:	e87a0000 	lwi	r3, r26, 0
    13d4:	8863b000 	xor	r3, r3, r22
    13d8:	be23ff44 	bneid	r3, -188		// 131c
    13dc:	3273ffff 	addik	r19, r19, -1
    13e0:	beb3ff70 	bgeid	r19, -144		// 1350
    13e4:	30730020 	addik	r3, r19, 32
    13e8:	bc3f01a0 	bnei	r31, 416		// 1588
    13ec:	e9e10000 	lwi	r15, r1, 0
    13f0:	ea61001c 	lwi	r19, r1, 28
    13f4:	eac10020 	lwi	r22, r1, 32
    13f8:	eae10024 	lwi	r23, r1, 36
    13fc:	eb010028 	lwi	r24, r1, 40
    1400:	eb21002c 	lwi	r25, r1, 44
    1404:	eb410030 	lwi	r26, r1, 48
    1408:	eb610034 	lwi	r27, r1, 52
    140c:	eb810038 	lwi	r28, r1, 56
    1410:	eba1003c 	lwi	r29, r1, 60
    1414:	ebc10040 	lwi	r30, r1, 64
    1418:	ebe10044 	lwi	r31, r1, 68
    141c:	b60f0008 	rtsd	r15, 8
    1420:	30210048 	addik	r1, r1, 72
    1424:	99fc2000 	brald	r15, r4
    1428:	80000000 	or	r0, r0, r0
    142c:	b810ff9c 	brid	-100		// 13c8
    1430:	e8760004 	lwi	r3, r22, 4
    1434:	f8d60004 	swi	r6, r22, 4
    1438:	b810ff48 	brid	-184		// 1380
    143c:	13060000 	addk	r24, r6, r0
    1440:	10be0000 	addk	r5, r30, r0
    1444:	99fc2000 	brald	r15, r4
    1448:	c8c3b800 	lw	r6, r3, r23
    144c:	b810ff7c 	brid	-132		// 13c8
    1450:	e8760004 	lwi	r3, r22, 4
    1454:	be1700f0 	beqid	r23, 240		// 1544
    1458:	13030000 	addk	r24, r3, r0
    145c:	30d30002 	addik	r6, r19, 2
    1460:	3063ffff 	addik	r3, r3, -1
    1464:	60c60004 	muli	r6, r6, 4
    1468:	88e39800 	xor	r7, r3, r19
    146c:	be070094 	beqid	r7, 148		// 1500
    1470:	c886b000 	lw	r4, r6, r22
    1474:	d806b000 	sw	r0, r6, r22
    1478:	bc040060 	beqi	r4, 96		// 14d8
    147c:	e8b70100 	lwi	r5, r23, 256
    1480:	a653001f 	andi	r18, r19, 31
    1484:	1060d800 	addk	r3, r0, r27
    1488:	be120014 	beqid	r18, 20		// 149c
    148c:	10630000 	addk	r3, r3, r0
    1490:	3252ffff 	addik	r18, r18, -1
    1494:	be32fffc 	bneid	r18, -4		// 1490
    1498:	10631800 	addk	r3, r3, r3
    149c:	84a32800 	and	r5, r3, r5
    14a0:	bc0500c8 	beqi	r5, 200		// 1568
    14a4:	e8b70104 	lwi	r5, r23, 260
    14a8:	84632800 	and	r3, r3, r5
    14ac:	be2300cc 	bneid	r3, 204		// 1578
    14b0:	60730004 	muli	r3, r19, 4
    14b4:	10be0000 	addk	r5, r30, r0
    14b8:	99fc2000 	brald	r15, r4
    14bc:	c8c3b800 	lw	r6, r3, r23
    14c0:	e8760004 	lwi	r3, r22, 4
    14c4:	8863c000 	xor	r3, r3, r24
    14c8:	bc23fe54 	bnei	r3, -428		// 131c
    14cc:	e87a0000 	lwi	r3, r26, 0
    14d0:	8863b000 	xor	r3, r3, r22
    14d4:	bc23fe48 	bnei	r3, -440		// 131c
    14d8:	3273ffff 	addik	r19, r19, -1
    14dc:	be53ff0c 	bltid	r19, -244		// 13e8
    14e0:	30d30002 	addik	r6, r19, 2
    14e4:	e8760004 	lwi	r3, r22, 4
    14e8:	60c60004 	muli	r6, r6, 4
    14ec:	13030000 	addk	r24, r3, r0
    14f0:	3063ffff 	addik	r3, r3, -1
    14f4:	88e39800 	xor	r7, r3, r19
    14f8:	be27ff7c 	bneid	r7, -132		// 1474
    14fc:	c886b000 	lw	r4, r6, r22
    1500:	f8760004 	swi	r3, r22, 4
    1504:	b810ff74 	brid	-140		// 1478
    1508:	13030000 	addk	r24, r3, r0
    150c:	13030000 	addk	r24, r3, r0
    1510:	f8760004 	swi	r3, r22, 4
    1514:	bc060024 	beqi	r6, 36		// 1538
    1518:	99fc3000 	brald	r15, r6
    151c:	80000000 	or	r0, r0, r0
    1520:	e8760004 	lwi	r3, r22, 4
    1524:	8863c000 	xor	r3, r3, r24
    1528:	bc23fdf4 	bnei	r3, -524		// 131c
    152c:	e87a0000 	lwi	r3, r26, 0
    1530:	8863b000 	xor	r3, r3, r22
    1534:	bc23fde8 	bnei	r3, -536		// 131c
    1538:	3273ffff 	addik	r19, r19, -1
    153c:	bc53feac 	blti	r19, -340		// 13e8
    1540:	e8760004 	lwi	r3, r22, 4
    1544:	13030000 	addk	r24, r3, r0
    1548:	30930002 	addik	r4, r19, 2
    154c:	3063ffff 	addik	r3, r3, -1
    1550:	60840004 	muli	r4, r4, 4
    1554:	88a39800 	xor	r5, r3, r19
    1558:	be05ffb4 	beqid	r5, -76		// 150c
    155c:	c8c4b000 	lw	r6, r4, r22
    1560:	b810ffb4 	brid	-76		// 1514
    1564:	d804b000 	sw	r0, r4, r22
    1568:	99fc2000 	brald	r15, r4
    156c:	80000000 	or	r0, r0, r0
    1570:	b810ff54 	brid	-172		// 14c4
    1574:	e8760004 	lwi	r3, r22, 4
    1578:	99fc2000 	brald	r15, r4
    157c:	c8a3b800 	lw	r5, r3, r23
    1580:	b810ff44 	brid	-188		// 14c4
    1584:	e8760004 	lwi	r3, r22, 4
    1588:	e8760004 	lwi	r3, r22, 4
    158c:	bc230040 	bnei	r3, 64		// 15cc
    1590:	e8760000 	lwi	r3, r22, 0
    1594:	bc03003c 	beqi	r3, 60		// 15d0
    1598:	be170014 	beqid	r23, 20		// 15ac
    159c:	f87a0000 	swi	r3, r26, 0
    15a0:	b0000000 	imm	0
    15a4:	b9f439c0 	brlid	r15, 14784	// 4f64 <free>
    15a8:	10b70000 	addk	r5, r23, r0
    15ac:	b0000000 	imm	0
    15b0:	b9f439b4 	brlid	r15, 14772	// 4f64 <free>
    15b4:	10b60000 	addk	r5, r22, r0
    15b8:	eada0000 	lwi	r22, r26, 0
    15bc:	be36fd6c 	bneid	r22, -660		// 1328
    15c0:	e9e10000 	lwi	r15, r1, 0
    15c4:	b810fe30 	brid	-464		// 13f4
    15c8:	ea61001c 	lwi	r19, r1, 28
    15cc:	e8760000 	lwi	r3, r22, 0
    15d0:	13560000 	addk	r26, r22, r0
    15d4:	b810ffe8 	brid	-24		// 15bc
    15d8:	12c30000 	addk	r22, r3, r0

000015dc <enable_caches>:

#define UART_BAUD 9600

void
enable_caches()
{
    15dc:	3021ffe4 	addik	r1, r1, -28
    15e0:	f9e10000 	swi	r15, r1, 0
#ifdef __PPC__
    Xil_ICacheEnableRegion(CACHEABLE_REGION_MASK);
    Xil_DCacheEnableRegion(CACHEABLE_REGION_MASK);
#elif __MICROBLAZE__
#ifdef XPAR_MICROBLAZE_USE_ICACHE
    Xil_ICacheEnable();
    15e4:	b0000000 	imm	0
    15e8:	b9f427ac 	brlid	r15, 10156	// 3d94 <microblaze_enable_icache>
    15ec:	80000000 	or	r0, r0, r0
#endif
#ifdef XPAR_MICROBLAZE_USE_DCACHE
    Xil_DCacheEnable();
    15f0:	b0000000 	imm	0
    15f4:	b9f42788 	brlid	r15, 10120	// 3d7c <microblaze_enable_dcache>
    15f8:	80000000 	or	r0, r0, r0
#endif
#endif
}
    15fc:	e9e10000 	lwi	r15, r1, 0
    1600:	b60f0008 	rtsd	r15, 8
    1604:	3021001c 	addik	r1, r1, 28

00001608 <disable_caches>:

void
disable_caches()
{
    1608:	3021ffe4 	addik	r1, r1, -28
    160c:	f9e10000 	swi	r15, r1, 0
    Xil_DCacheDisable();
    1610:	b0000000 	imm	0
    1614:	b9f427c4 	brlid	r15, 10180	// 3dd8 <Xil_DCacheDisable>
    1618:	80000000 	or	r0, r0, r0
    Xil_ICacheDisable();
    161c:	b0000000 	imm	0
    1620:	b9f427f0 	brlid	r15, 10224	// 3e10 <Xil_ICacheDisable>
    1624:	80000000 	or	r0, r0, r0
}
    1628:	e9e10000 	lwi	r15, r1, 0
    162c:	b60f0008 	rtsd	r15, 8
    1630:	3021001c 	addik	r1, r1, 28

00001634 <init_uart>:
{
#ifdef STDOUT_IS_16550
    XUartNs550_SetBaud(STDOUT_BASEADDR, XPAR_XUARTNS550_CLOCK_HZ, UART_BAUD);
    XUartNs550_SetLineControlReg(STDOUT_BASEADDR, XUN_LCR_8_DATA_BITS);
#endif
}
    1634:	b60f0008 	rtsd	r15, 8
    1638:	80000000 	or	r0, r0, r0

0000163c <init_platform>:

void
init_platform()
{
    163c:	3021ffe4 	addik	r1, r1, -28
    1640:	f9e10000 	swi	r15, r1, 0
     * uncomment the following line and also #include "ps7_init.h" at the top.
     * Make sure that the ps7_init.c and ps7_init.h files are included
     * along with this example source files for compilation.
     */
    /* ps7_init();*/
    enable_caches();
    1644:	b9f4ff98 	brlid	r15, -104	// 15dc <enable_caches>
    1648:	80000000 	or	r0, r0, r0
    init_uart();
}
    164c:	e9e10000 	lwi	r15, r1, 0
    1650:	b60f0008 	rtsd	r15, 8
    1654:	3021001c 	addik	r1, r1, 28

00001658 <cleanup_platform>:

void
cleanup_platform()
{
    1658:	3021ffe4 	addik	r1, r1, -28
    165c:	f9e10000 	swi	r15, r1, 0
    disable_caches();
    1660:	b9f4ffa8 	brlid	r15, -88	// 1608 <disable_caches>
    1664:	80000000 	or	r0, r0, r0
}
    1668:	e9e10000 	lwi	r15, r1, 0
    166c:	b60f0008 	rtsd	r15, 8
    1670:	3021001c 	addik	r1, r1, 28

00001674 <timenow>:
#define LOG_IF_ERROR(condition, message, ...) if (condition) PRINTFUNCTION(LOG_FMT message NEWLINE, LOG_ARGS(ERROR_TAG), ## __VA_ARGS__)
#else
#define LOG_IF_ERROR(condition, message, ...)
#endif

static inline char *timenow() {
    1674:	3021ffe0 	addik	r1, r1, -32
    1678:	f9e10000 	swi	r15, r1, 0
    static char buffer[64];
    time_t rawtime;
    struct tm *timeinfo;

    time(&rawtime);
    167c:	b0000000 	imm	0
    1680:	b9f41fbc 	brlid	r15, 8124	// 363c <time>
    1684:	30a1001c 	addik	r5, r1, 28
    timeinfo = localtime(&rawtime);
    1688:	b0000000 	imm	0
    168c:	b9f4380c 	brlid	r15, 14348	// 4e98 <localtime>
    1690:	30a1001c 	addik	r5, r1, 28

    strftime(buffer, 64, "%Y-%m-%d %H:%M:%S", timeinfo);
    1694:	b0000000 	imm	0
    1698:	30a0eaa4 	addik	r5, r0, -5468	// eaa4 <buffer.2636>
    169c:	b0000000 	imm	0
    16a0:	30e0d5c8 	addik	r7, r0, -10808
    16a4:	11030000 	addk	r8, r3, r0
    16a8:	b0000000 	imm	0
    16ac:	b9f45e2c 	brlid	r15, 24108	// 74d8 <strftime>
    16b0:	30c00040 	addik	r6, r0, 64

    return buffer;
}
    16b4:	b0000000 	imm	0
    16b8:	3060eaa4 	addik	r3, r0, -5468	// eaa4 <buffer.2636>
    16bc:	e9e10000 	lwi	r15, r1, 0
    16c0:	b60f0008 	rtsd	r15, 8
    16c4:	30210020 	addik	r1, r1, 32

000016c8 <RecvHandler>:
    currently_sending = 0;
  }
  LOG_DEBUG("sent %x\n", EventData);
}

void RecvHandler(void *CallBackRef, unsigned int EventData) {
    16c8:	3021ffe0 	addik	r1, r1, -32
  if (EventData != sizeof(uint32_t)) {
    16cc:	a8c60004 	xori	r6, r6, 4
    16d0:	be060064 	beqid	r6, 100		// 1734
    16d4:	f9e10000 	swi	r15, r1, 0
static inline char *timenow() {
    static char buffer[64];
    time_t rawtime;
    struct tm *timeinfo;

    time(&rawtime);
    16d8:	b0000000 	imm	0
    16dc:	b9f41f60 	brlid	r15, 8032	// 363c <time>
    16e0:	30a1001c 	addik	r5, r1, 28
    timeinfo = localtime(&rawtime);
    16e4:	b0000000 	imm	0
    16e8:	b9f437b0 	brlid	r15, 14256	// 4e98 <localtime>
    16ec:	30a1001c 	addik	r5, r1, 28

    strftime(buffer, 64, "%Y-%m-%d %H:%M:%S", timeinfo);
    16f0:	b0000000 	imm	0
    16f4:	30a0eaa4 	addik	r5, r0, -5468	// eaa4 <buffer.2636>
    16f8:	b0000000 	imm	0
    16fc:	30e0d5c8 	addik	r7, r0, -10808
    1700:	11030000 	addk	r8, r3, r0
    1704:	b0000000 	imm	0
    1708:	b9f45dd0 	brlid	r15, 24016	// 74d8 <strftime>
    170c:	30c00040 	addik	r6, r0, 64
    LOG_ERROR("ERROR: did not receive a whole word!\n");
    1710:	b0000000 	imm	0
    1714:	30a0d5dc 	addik	r5, r0, -10788
    1718:	b0000000 	imm	0
    171c:	30c0eaa4 	addik	r6, r0, -5468	// eaa4 <buffer.2636>
    1720:	b0000000 	imm	0
    1724:	30e0d610 	addik	r7, r0, -10736
    1728:	b0000000 	imm	0
    172c:	b9f42188 	brlid	r15, 8584	// 38b4 <xil_printf>
    1730:	80000000 	or	r0, r0, r0
  }
  cbuffer_push_back(rx_buffer, rx_tmp_buffer);
    1734:	b0000000 	imm	0
    1738:	e8c0ea9c 	lwi	r6, r0, -5476	// ea9c <rx_tmp_buffer>
    173c:	b0000000 	imm	0
    1740:	e8a0eae4 	lwi	r5, r0, -5404	// eae4 <rx_buffer>
    1744:	b0000000 	imm	0
    1748:	b9f40a38 	brlid	r15, 2616	// 2180 <cbuffer_push_back>
    174c:	80000000 	or	r0, r0, r0
  XUartLite_Recv(&UartLite, (u8*)&rx_tmp_buffer, sizeof(uint32_t));
    1750:	b0000000 	imm	0
    1754:	30a0ec5c 	addik	r5, r0, -5028	// ec5c <UartLite>
    1758:	b0000000 	imm	0
    175c:	30c0ea9c 	addik	r6, r0, -5476	// ea9c <rx_tmp_buffer>
    1760:	b0000000 	imm	0
    1764:	b9f43018 	brlid	r15, 12312	// 477c <XUartLite_Recv>
    1768:	30e00004 	addik	r7, r0, 4
  LOG_DEBUG("recv %x\n", EventData);
}
    176c:	e9e10000 	lwi	r15, r1, 0
    1770:	b60f0008 	rtsd	r15, 8
    1774:	30210020 	addik	r1, r1, 32

00001778 <SendHandler>:
static volatile uint32_t rx_tmp_buffer;
static volatile int currently_sending = 0;

int SetupInterruptSystem(XUartLite *UartLitePtr);

void SendHandler(void *CallBackRef, unsigned int EventData) {
    1778:	3021ffdc 	addik	r1, r1, -36
    177c:	fa610020 	swi	r19, r1, 32
    1780:	f9e10000 	swi	r15, r1, 0
  // delete the bytes which were sent previously
  if (EventData % sizeof(uint32_t)) {
    1784:	a4660003 	andi	r3, r6, 3
    1788:	be230058 	bneid	r3, 88		// 17e0
    178c:	12660000 	addk	r19, r6, r0
    LOG_ERROR("ERROR: sent data not word aligned!!!\n");
  }
  cbuffer_deletefront(tx_buffer, EventData / sizeof(uint32_t));
    1790:	b0000000 	imm	0
    1794:	e8a0eaa0 	lwi	r5, r0, -5472	// eaa0 <tx_buffer>
    1798:	10c09800 	addk	r6, r0, r19
    179c:	90d30041 	srl	r6, r19
    17a0:	90c60041 	srl	r6, r6
    17a4:	b0000000 	imm	0
    17a8:	b9f40c08 	brlid	r15, 3080	// 23b0 <cbuffer_deletefront>
    17ac:	80000000 	or	r0, r0, r0
  if (cbuffer_size(tx_buffer)) {
    17b0:	b0000000 	imm	0
    17b4:	e8a0eaa0 	lwi	r5, r0, -5472	// eaa0 <tx_buffer>
    17b8:	b0000000 	imm	0
    17bc:	b9f4075c 	brlid	r15, 1884	// 1f18 <cbuffer_size>
    17c0:	80000000 	or	r0, r0, r0
    17c4:	be23007c 	bneid	r3, 124		// 1840
    17c8:	e9e10000 	lwi	r15, r1, 0
    currently_sending = 1;
  } else {
    currently_sending = 0;
  }
  LOG_DEBUG("sent %x\n", EventData);
}
    17cc:	ea610020 	lwi	r19, r1, 32
  if (cbuffer_size(tx_buffer)) {
    unsigned int to_send = cbuffer_contiguous_data_size(tx_buffer) * sizeof(uint32_t);
    XUartLite_Send(&UartLite, (u8*)&(tx_buffer->data[tx_buffer->pos]), to_send);
    currently_sending = 1;
  } else {
    currently_sending = 0;
    17d0:	b0000000 	imm	0
    17d4:	f860ea98 	swi	r3, r0, -5480	// ea98 <currently_sending>
  }
  LOG_DEBUG("sent %x\n", EventData);
}
    17d8:	b60f0008 	rtsd	r15, 8
    17dc:	30210024 	addik	r1, r1, 36
static inline char *timenow() {
    static char buffer[64];
    time_t rawtime;
    struct tm *timeinfo;

    time(&rawtime);
    17e0:	b0000000 	imm	0
    17e4:	b9f41e58 	brlid	r15, 7768	// 363c <time>
    17e8:	30a1001c 	addik	r5, r1, 28
    timeinfo = localtime(&rawtime);
    17ec:	b0000000 	imm	0
    17f0:	b9f436a8 	brlid	r15, 13992	// 4e98 <localtime>
    17f4:	30a1001c 	addik	r5, r1, 28

    strftime(buffer, 64, "%Y-%m-%d %H:%M:%S", timeinfo);
    17f8:	b0000000 	imm	0
    17fc:	30a0eaa4 	addik	r5, r0, -5468	// eaa4 <buffer.2636>
    1800:	b0000000 	imm	0
    1804:	30e0d5c8 	addik	r7, r0, -10808
    1808:	11030000 	addk	r8, r3, r0
    180c:	b0000000 	imm	0
    1810:	b9f45cc8 	brlid	r15, 23752	// 74d8 <strftime>
    1814:	30c00040 	addik	r6, r0, 64
int SetupInterruptSystem(XUartLite *UartLitePtr);

void SendHandler(void *CallBackRef, unsigned int EventData) {
  // delete the bytes which were sent previously
  if (EventData % sizeof(uint32_t)) {
    LOG_ERROR("ERROR: sent data not word aligned!!!\n");
    1818:	b0000000 	imm	0
    181c:	30a0d618 	addik	r5, r0, -10728
    1820:	b0000000 	imm	0
    1824:	30c0eaa4 	addik	r6, r0, -5468	// eaa4 <buffer.2636>
    1828:	b0000000 	imm	0
    182c:	30e0d610 	addik	r7, r0, -10736
    1830:	b0000000 	imm	0
    1834:	b9f42080 	brlid	r15, 8320	// 38b4 <xil_printf>
    1838:	80000000 	or	r0, r0, r0
    183c:	b800ff54 	bri	-172		// 1790
  }
  cbuffer_deletefront(tx_buffer, EventData / sizeof(uint32_t));
  if (cbuffer_size(tx_buffer)) {
    unsigned int to_send = cbuffer_contiguous_data_size(tx_buffer) * sizeof(uint32_t);
    1840:	b0000000 	imm	0
    1844:	e8a0eaa0 	lwi	r5, r0, -5472	// eaa0 <tx_buffer>
    1848:	b0000000 	imm	0
    184c:	b9f406f0 	brlid	r15, 1776	// 1f3c <cbuffer_contiguous_data_size>
    1850:	80000000 	or	r0, r0, r0
    XUartLite_Send(&UartLite, (u8*)&(tx_buffer->data[tx_buffer->pos]), to_send);
    1854:	b0000000 	imm	0
    1858:	e880eaa0 	lwi	r4, r0, -5472	// eaa0 <tx_buffer>
    185c:	60e30004 	muli	r7, r3, 4
    1860:	b0000000 	imm	0
    1864:	30a0ec5c 	addik	r5, r0, -5028	// ec5c <UartLite>
    1868:	e8640008 	lwi	r3, r4, 8
    186c:	e8c40000 	lwi	r6, r4, 0
    1870:	60630004 	muli	r3, r3, 4
    1874:	b0000000 	imm	0
    1878:	b9f42cec 	brlid	r15, 11500	// 4564 <XUartLite_Send>
    187c:	10c61800 	addk	r6, r6, r3
    currently_sending = 1;
  } else {
    currently_sending = 0;
  }
  LOG_DEBUG("sent %x\n", EventData);
}
    1880:	e9e10000 	lwi	r15, r1, 0
    1884:	ea610020 	lwi	r19, r1, 32
  }
  cbuffer_deletefront(tx_buffer, EventData / sizeof(uint32_t));
  if (cbuffer_size(tx_buffer)) {
    unsigned int to_send = cbuffer_contiguous_data_size(tx_buffer) * sizeof(uint32_t);
    XUartLite_Send(&UartLite, (u8*)&(tx_buffer->data[tx_buffer->pos]), to_send);
    currently_sending = 1;
    1888:	30600001 	addik	r3, r0, 1
    188c:	b0000000 	imm	0
    1890:	f860ea98 	swi	r3, r0, -5480	// ea98 <currently_sending>
  } else {
    currently_sending = 0;
  }
  LOG_DEBUG("sent %x\n", EventData);
}
    1894:	b60f0008 	rtsd	r15, 8
    1898:	30210024 	addik	r1, r1, 36

0000189c <SetupInterruptSystem>:
    }
  }

}

int SetupInterruptSystem(XUartLite *UartLitePtr) {
    189c:	3021ffdc 	addik	r1, r1, -36
    18a0:	fac10020 	swi	r22, r1, 32
    18a4:	12c50000 	addk	r22, r5, r0

  /*
   * Initialize the interrupt controller driver so that it is ready to
   * use.
   */
  Status = XIntc_Initialize(&InterruptController, INTC_DEVICE_ID);
    18a8:	b0000000 	imm	0
    18ac:	30a0eca8 	addik	r5, r0, -4952	// eca8 <InterruptController>
    18b0:	10c00000 	addk	r6, r0, r0
    }
  }

}

int SetupInterruptSystem(XUartLite *UartLitePtr) {
    18b4:	fa61001c 	swi	r19, r1, 28
    18b8:	f9e10000 	swi	r15, r1, 0

  /*
   * Initialize the interrupt controller driver so that it is ready to
   * use.
   */
  Status = XIntc_Initialize(&InterruptController, INTC_DEVICE_ID);
    18bc:	b000ffff 	imm	-1
    18c0:	b9f4ed94 	brlid	r15, -4716	// 654 <XIntc_Initialize>
    18c4:	32600001 	addik	r19, r0, 1
  if (Status != XST_SUCCESS) {
    18c8:	be030020 	beqid	r3, 32		// 18e8
    18cc:	10d30000 	addk	r6, r19, r0
  Xil_ExceptionEnable();

  LOG_DEBUG("Setup interrupts okay\n");

  return XST_SUCCESS;
}
    18d0:	10730000 	addk	r3, r19, r0
    18d4:	e9e10000 	lwi	r15, r1, 0
    18d8:	ea61001c 	lwi	r19, r1, 28
    18dc:	eac10020 	lwi	r22, r1, 32
    18e0:	b60f0008 	rtsd	r15, 8
    18e4:	30210024 	addik	r1, r1, 36
  /*
   * Connect a device driver handler that will be called when an interrupt
   * for the device occurs, the device driver handler performs the
   * specific interrupt processing for the device.
   */
  Status = XIntc_Connect(&InterruptController, UARTLITE_INT_IRQ_ID,
    18e8:	b0000000 	imm	0
    18ec:	30a0eca8 	addik	r5, r0, -4952	// eca8 <InterruptController>
    18f0:	b0000000 	imm	0
    18f4:	30e04094 	addik	r7, r0, 16532	// 4094 <XUartLite_InterruptHandler>
    18f8:	b000ffff 	imm	-1
    18fc:	b9f4f044 	brlid	r15, -4028	// 940 <XIntc_Connect>
    1900:	11160000 	addk	r8, r22, r0
      (XInterruptHandler)XUartLite_InterruptHandler,
      (void *)UartLitePtr);
  if (Status != XST_SUCCESS) {
    1904:	be23ffd0 	bneid	r3, -48		// 18d4
    1908:	10730000 	addk	r3, r19, r0
  /*
   * Start the interrupt controller such that interrupts are enabled for
   * all devices that cause interrupts, specific real mode so that
   * the UartLite can cause interrupts through the interrupt controller.
   */
  Status = XIntc_Start(&InterruptController, XIN_REAL_MODE);
    190c:	b0000000 	imm	0
    1910:	30a0eca8 	addik	r5, r0, -4952	// eca8 <InterruptController>
    1914:	b000ffff 	imm	-1
    1918:	b9f4eea8 	brlid	r15, -4440	// 7c0 <XIntc_Start>
    191c:	10d30000 	addk	r6, r19, r0
  if (Status != XST_SUCCESS) {
    1920:	be23ffb0 	bneid	r3, -80		// 18d0
    1924:	10d30000 	addk	r6, r19, r0
  }

  /*
   * Enable the interrupt for the UartLite device.
   */
  XIntc_Enable(&InterruptController, UARTLITE_INT_IRQ_ID);
    1928:	b0000000 	imm	0
    192c:	30a0eca8 	addik	r5, r0, -4952	// eca8 <InterruptController>
    1930:	b000ffff 	imm	-1
    1934:	b9f4f220 	brlid	r15, -3552	// b54 <XIntc_Enable>
    1938:	12630000 	addk	r19, r3, r0

  /*
   * Initialize the exception table.
   */
  Xil_ExceptionInit();
    193c:	b0000000 	imm	0
    1940:	b9f42504 	brlid	r15, 9476	// 3e44 <Xil_ExceptionInit>
    1944:	80000000 	or	r0, r0, r0

  /*
   * Register the interrupt controller handler with the exception table.
   */
  Xil_ExceptionRegisterHandler(XIL_EXCEPTION_ID_INT,
    1948:	b0000000 	imm	0
    194c:	30c04c34 	addik	r6, r0, 19508	// 4c34 <XIntc_InterruptHandler>
    1950:	b0000000 	imm	0
    1954:	30e0eca8 	addik	r7, r0, -4952	// eca8 <InterruptController>
    1958:	b0000000 	imm	0
    195c:	b9f42548 	brlid	r15, 9544	// 3ea4 <Xil_ExceptionRegisterHandler>
    1960:	30a00010 	addik	r5, r0, 16	// 10 <_vector_interrupt>
      &InterruptController);

  /*
   * Enable exceptions.
   */
  Xil_ExceptionEnable();
    1964:	b0000000 	imm	0
    1968:	b9f424e4 	brlid	r15, 9444	// 3e4c <Xil_ExceptionEnable>
    196c:	80000000 	or	r0, r0, r0

  LOG_DEBUG("Setup interrupts okay\n");

  return XST_SUCCESS;
    1970:	b810ff64 	brid	-156		// 18d4
    1974:	10730000 	addk	r3, r19, r0

00001978 <buffer_new>:
#include <stdlib.h>
#include <string.h>

#include "buffer.h"

Buffer* buffer_new(void* data, uint32_t size) {
    1978:	3021ffd4 	addik	r1, r1, -44
    197c:	fb010028 	swi	r24, r1, 40
    1980:	13060000 	addk	r24, r6, r0
    1984:	fae10024 	swi	r23, r1, 36
    1988:	12e50000 	addk	r23, r5, r0
  Buffer* output = malloc(sizeof(Buffer));
    198c:	30a00008 	addik	r5, r0, 8	// 8 <_vector_sw_exception>
#include <stdlib.h>
#include <string.h>

#include "buffer.h"

Buffer* buffer_new(void* data, uint32_t size) {
    1990:	f9e10000 	swi	r15, r1, 0
    1994:	fa61001c 	swi	r19, r1, 28
  Buffer* output = malloc(sizeof(Buffer));
    1998:	b0000000 	imm	0
    199c:	b9f4359c 	brlid	r15, 13724	// 4f38 <malloc>
    19a0:	fac10020 	swi	r22, r1, 32
  output->data = malloc(size * sizeof(uint32_t));
    19a4:	62d80004 	muli	r22, r24, 4
    19a8:	10b60000 	addk	r5, r22, r0
    19ac:	b0000000 	imm	0
    19b0:	b9f43588 	brlid	r15, 13704	// 4f38 <malloc>
    19b4:	12630000 	addk	r19, r3, r0
    19b8:	f8730000 	swi	r3, r19, 0
  output->size = size;
    19bc:	fb130004 	swi	r24, r19, 4
  if (data) {
    memcpy(output->data, data, size * sizeof(uint32_t));
    19c0:	10a30000 	addk	r5, r3, r0
    19c4:	10d70000 	addk	r6, r23, r0

Buffer* buffer_new(void* data, uint32_t size) {
  Buffer* output = malloc(sizeof(Buffer));
  output->data = malloc(size * sizeof(uint32_t));
  output->size = size;
  if (data) {
    19c8:	be170034 	beqid	r23, 52		// 19fc
    19cc:	10f60000 	addk	r7, r22, r0
    memcpy(output->data, data, size * sizeof(uint32_t));
    19d0:	b0000000 	imm	0
    19d4:	b9f44144 	brlid	r15, 16708	// 5b18 <memcpy>
    19d8:	80000000 	or	r0, r0, r0
  } else {
    memset(output->data, 0, size * sizeof(uint32_t));
  }
  return output;
}
    19dc:	10730000 	addk	r3, r19, r0
    19e0:	e9e10000 	lwi	r15, r1, 0
    19e4:	ea61001c 	lwi	r19, r1, 28
    19e8:	eac10020 	lwi	r22, r1, 32
    19ec:	eae10024 	lwi	r23, r1, 36
    19f0:	eb010028 	lwi	r24, r1, 40
    19f4:	b60f0008 	rtsd	r15, 8
    19f8:	3021002c 	addik	r1, r1, 44
  output->data = malloc(size * sizeof(uint32_t));
  output->size = size;
  if (data) {
    memcpy(output->data, data, size * sizeof(uint32_t));
  } else {
    memset(output->data, 0, size * sizeof(uint32_t));
    19fc:	b0000000 	imm	0
    1a00:	b9f445f4 	brlid	r15, 17908	// 5ff4 <memset>
    1a04:	80000000 	or	r0, r0, r0
  }
  return output;
}
    1a08:	10730000 	addk	r3, r19, r0
    1a0c:	e9e10000 	lwi	r15, r1, 0
    1a10:	ea61001c 	lwi	r19, r1, 28
    1a14:	eac10020 	lwi	r22, r1, 32
    1a18:	eae10024 	lwi	r23, r1, 36
    1a1c:	eb010028 	lwi	r24, r1, 40
    1a20:	b60f0008 	rtsd	r15, 8
    1a24:	3021002c 	addik	r1, r1, 44

00001a28 <buffer_free>:

void buffer_free(Buffer* buf) {
    1a28:	3021ffe0 	addik	r1, r1, -32
    1a2c:	f9e10000 	swi	r15, r1, 0
    1a30:	fa61001c 	swi	r19, r1, 28
    1a34:	12650000 	addk	r19, r5, r0
  free(buf->data);
    1a38:	b0000000 	imm	0
    1a3c:	b9f43528 	brlid	r15, 13608	// 4f64 <free>
    1a40:	e8a50000 	lwi	r5, r5, 0
  free(buf);
    1a44:	b0000000 	imm	0
    1a48:	b9f4351c 	brlid	r15, 13596	// 4f64 <free>
    1a4c:	10b30000 	addk	r5, r19, r0
}
    1a50:	e9e10000 	lwi	r15, r1, 0
    1a54:	ea61001c 	lwi	r19, r1, 28
    1a58:	b60f0008 	rtsd	r15, 8
    1a5c:	30210020 	addik	r1, r1, 32

00001a60 <buffer_resize>:

void buffer_resize(Buffer* buf, uint32_t size) {
    1a60:	3021ffdc 	addik	r1, r1, -36
    1a64:	f9e10000 	swi	r15, r1, 0
    1a68:	fa61001c 	swi	r19, r1, 28
    1a6c:	fac10020 	swi	r22, r1, 32
    1a70:	12650000 	addk	r19, r5, r0
  buf->data = realloc(buf->data, size * sizeof(uint32_t));
    1a74:	e8a50000 	lwi	r5, r5, 0
void buffer_free(Buffer* buf) {
  free(buf->data);
  free(buf);
}

void buffer_resize(Buffer* buf, uint32_t size) {
    1a78:	12c60000 	addk	r22, r6, r0
  buf->data = realloc(buf->data, size * sizeof(uint32_t));
    1a7c:	b0000000 	imm	0
    1a80:	b9f45114 	brlid	r15, 20756	// 6b94 <realloc>
    1a84:	60c60004 	muli	r6, r6, 4
    1a88:	f8730000 	swi	r3, r19, 0
  buf->size = size;
    1a8c:	fad30004 	swi	r22, r19, 4
}
    1a90:	e9e10000 	lwi	r15, r1, 0
    1a94:	ea61001c 	lwi	r19, r1, 28
    1a98:	eac10020 	lwi	r22, r1, 32
    1a9c:	b60f0008 	rtsd	r15, 8
    1aa0:	30210024 	addik	r1, r1, 36

00001aa4 <bytebuffer_ctor>:

#include <stdlib.h>
#include <string.h>
#include <unistd.h>

ByteBuffer bytebuffer_ctor(const unsigned char* data, size_t n) {
    1aa4:	3021ffd4 	addik	r1, r1, -44
    1aa8:	fa610020 	swi	r19, r1, 32
    1aac:	fac10024 	swi	r22, r1, 36
    1ab0:	fae10028 	swi	r23, r1, 40
    1ab4:	f9e10000 	swi	r15, r1, 0
    1ab8:	12670000 	addk	r19, r7, r0
    1abc:	12c50000 	addk	r22, r5, r0
  ByteBuffer output;
  output.bufsize = n;
  output.buf = NULL;
  if (n) {
    1ac0:	be070034 	beqid	r7, 52		// 1af4
    1ac4:	12e70000 	addk	r23, r7, r0
    if (data != NULL) {
    1ac8:	be060050 	beqid	r6, 80		// 1b18
    1acc:	10a70000 	addk	r5, r7, r0
      output.buf = malloc(n);
    1ad0:	b0000000 	imm	0
    1ad4:	b9f43464 	brlid	r15, 13412	// 4f38 <malloc>
    1ad8:	f8c1001c 	swi	r6, r1, 28
      memcpy(output.buf, data, n);
    1adc:	10a30000 	addk	r5, r3, r0
    1ae0:	e8c1001c 	lwi	r6, r1, 28
    1ae4:	10f30000 	addk	r7, r19, r0
    1ae8:	b0000000 	imm	0
    1aec:	b9f4402c 	brlid	r15, 16428	// 5b18 <memcpy>
    1af0:	12e30000 	addk	r23, r3, r0
    } else {
      output.buf = calloc(n, 1);
    }
  }
  return output;
    1af4:	fa760000 	swi	r19, r22, 0
    1af8:	faf60004 	swi	r23, r22, 4
}
    1afc:	10760000 	addk	r3, r22, r0
    1b00:	e9e10000 	lwi	r15, r1, 0
    1b04:	ea610020 	lwi	r19, r1, 32
    1b08:	eac10024 	lwi	r22, r1, 36
    1b0c:	eae10028 	lwi	r23, r1, 40
    1b10:	b60f0008 	rtsd	r15, 8
    1b14:	3021002c 	addik	r1, r1, 44
  if (n) {
    if (data != NULL) {
      output.buf = malloc(n);
      memcpy(output.buf, data, n);
    } else {
      output.buf = calloc(n, 1);
    1b18:	b0000000 	imm	0
    1b1c:	b9f43284 	brlid	r15, 12932	// 4da0 <calloc>
    1b20:	30c00001 	addik	r6, r0, 1
    1b24:	b810ffd0 	brid	-48		// 1af4
    1b28:	12e30000 	addk	r23, r3, r0

00001b2c <bytebuffer_free>:
    }
  }
  return output;
}

void bytebuffer_free(ByteBuffer* buffer) {
    1b2c:	3021ffe0 	addik	r1, r1, -32
    1b30:	f9e10000 	swi	r15, r1, 0
    1b34:	fa61001c 	swi	r19, r1, 28
    1b38:	12650000 	addk	r19, r5, r0
  free(buffer->buf);
    1b3c:	b0000000 	imm	0
    1b40:	b9f43424 	brlid	r15, 13348	// 4f64 <free>
    1b44:	e8a50004 	lwi	r5, r5, 4
  buffer->bufsize = 0;
    1b48:	f8130000 	swi	r0, r19, 0
  buffer->buf = NULL;
    1b4c:	f8130004 	swi	r0, r19, 4
}
    1b50:	e9e10000 	lwi	r15, r1, 0
    1b54:	ea61001c 	lwi	r19, r1, 28
    1b58:	b60f0008 	rtsd	r15, 8
    1b5c:	30210020 	addik	r1, r1, 32

00001b60 <bytebuffer_reserve_back>:

void bytebuffer_reserve_back(ByteBuffer* buffer, size_t n) {
    1b60:	3021ffdc 	addik	r1, r1, -36
    1b64:	f9e10000 	swi	r15, r1, 0
    1b68:	fa61001c 	swi	r19, r1, 28
    1b6c:	fac10020 	swi	r22, r1, 32
    1b70:	12c60000 	addk	r22, r6, r0
  // From: http://www.cplusplus.com/reference/cstdlib/realloc/
  // "Alternatively, this can be a null pointer, in which case a new block is
  // allocated (as if malloc was called)."
  buffer->buf = realloc(buffer->buf, buffer->bufsize + n);
    1b74:	e8c50000 	lwi	r6, r5, 0
  free(buffer->buf);
  buffer->bufsize = 0;
  buffer->buf = NULL;
}

void bytebuffer_reserve_back(ByteBuffer* buffer, size_t n) {
    1b78:	12650000 	addk	r19, r5, r0
  // From: http://www.cplusplus.com/reference/cstdlib/realloc/
  // "Alternatively, this can be a null pointer, in which case a new block is
  // allocated (as if malloc was called)."
  buffer->buf = realloc(buffer->buf, buffer->bufsize + n);
    1b7c:	e8a50004 	lwi	r5, r5, 4
    1b80:	b0000000 	imm	0
    1b84:	b9f45010 	brlid	r15, 20496	// 6b94 <realloc>
    1b88:	10d63000 	addk	r6, r22, r6
  buffer->bufsize += n;
    1b8c:	e8930000 	lwi	r4, r19, 0

void bytebuffer_reserve_back(ByteBuffer* buffer, size_t n) {
  // From: http://www.cplusplus.com/reference/cstdlib/realloc/
  // "Alternatively, this can be a null pointer, in which case a new block is
  // allocated (as if malloc was called)."
  buffer->buf = realloc(buffer->buf, buffer->bufsize + n);
    1b90:	f8730004 	swi	r3, r19, 4
  buffer->bufsize += n;
    1b94:	12c4b000 	addk	r22, r4, r22
    1b98:	fad30000 	swi	r22, r19, 0
}
    1b9c:	e9e10000 	lwi	r15, r1, 0
    1ba0:	ea61001c 	lwi	r19, r1, 28
    1ba4:	eac10020 	lwi	r22, r1, 32
    1ba8:	b60f0008 	rtsd	r15, 8
    1bac:	30210024 	addik	r1, r1, 36

00001bb0 <bytebuffer_append>:

void bytebuffer_append(ByteBuffer* buffer, const unsigned char* data, size_t n) {
    1bb0:	3021ffd4 	addik	r1, r1, -44
    1bb4:	fa610020 	swi	r19, r1, 32
    1bb8:	12660000 	addk	r19, r6, r0
  size_t original_size = buffer->bufsize;
  bytebuffer_reserve_back(buffer, n);
    1bbc:	10c70000 	addk	r6, r7, r0
  // allocated (as if malloc was called)."
  buffer->buf = realloc(buffer->buf, buffer->bufsize + n);
  buffer->bufsize += n;
}

void bytebuffer_append(ByteBuffer* buffer, const unsigned char* data, size_t n) {
    1bc0:	fac10024 	swi	r22, r1, 36
    1bc4:	12c50000 	addk	r22, r5, r0
    1bc8:	f9e10000 	swi	r15, r1, 0
    1bcc:	fae10028 	swi	r23, r1, 40
  size_t original_size = buffer->bufsize;
    1bd0:	eae50000 	lwi	r23, r5, 0
  bytebuffer_reserve_back(buffer, n);
    1bd4:	b9f4ff8c 	brlid	r15, -116	// 1b60 <bytebuffer_reserve_back>
    1bd8:	f8e1001c 	swi	r7, r1, 28
  if (data != NULL) {
    memcpy(buffer->buf + original_size, data, n);
    1bdc:	e8b60004 	lwi	r5, r22, 4
}

void bytebuffer_append(ByteBuffer* buffer, const unsigned char* data, size_t n) {
  size_t original_size = buffer->bufsize;
  bytebuffer_reserve_back(buffer, n);
  if (data != NULL) {
    1be0:	e8e1001c 	lwi	r7, r1, 28
    memcpy(buffer->buf + original_size, data, n);
    1be4:	10d30000 	addk	r6, r19, r0
}

void bytebuffer_append(ByteBuffer* buffer, const unsigned char* data, size_t n) {
  size_t original_size = buffer->bufsize;
  bytebuffer_reserve_back(buffer, n);
  if (data != NULL) {
    1be8:	be13002c 	beqid	r19, 44		// 1c14
    1bec:	10a5b800 	addk	r5, r5, r23
    memcpy(buffer->buf + original_size, data, n);
    1bf0:	b0000000 	imm	0
    1bf4:	b9f43f24 	brlid	r15, 16164	// 5b18 <memcpy>
    1bf8:	80000000 	or	r0, r0, r0
  } else {
    memset(buffer->buf + original_size, 0, n);
  }
}
    1bfc:	e9e10000 	lwi	r15, r1, 0
    1c00:	ea610020 	lwi	r19, r1, 32
    1c04:	eac10024 	lwi	r22, r1, 36
    1c08:	eae10028 	lwi	r23, r1, 40
    1c0c:	b60f0008 	rtsd	r15, 8
    1c10:	3021002c 	addik	r1, r1, 44
  size_t original_size = buffer->bufsize;
  bytebuffer_reserve_back(buffer, n);
  if (data != NULL) {
    memcpy(buffer->buf + original_size, data, n);
  } else {
    memset(buffer->buf + original_size, 0, n);
    1c14:	b0000000 	imm	0
    1c18:	b9f443dc 	brlid	r15, 17372	// 5ff4 <memset>
    1c1c:	80000000 	or	r0, r0, r0
  }
}
    1c20:	e9e10000 	lwi	r15, r1, 0
    1c24:	ea610020 	lwi	r19, r1, 32
    1c28:	eac10024 	lwi	r22, r1, 36
    1c2c:	eae10028 	lwi	r23, r1, 40
    1c30:	b60f0008 	rtsd	r15, 8
    1c34:	3021002c 	addik	r1, r1, 44

00001c38 <bytebuffer_del_back>:

void bytebuffer_del_back(ByteBuffer* buffer, size_t n) {
    1c38:	3021ffe0 	addik	r1, r1, -32
    1c3c:	fa61001c 	swi	r19, r1, 28
    1c40:	f9e10000 	swi	r15, r1, 0
  if (n >= buffer->bufsize) {
    1c44:	e8650000 	lwi	r3, r5, 0
    1c48:	14833003 	cmpu	r4, r3, r6
    1c4c:	bea40034 	bgeid	r4, 52		// 1c80
    1c50:	12650000 	addk	r19, r5, r0
    bytebuffer_free(buffer);
  } else {
    buffer->bufsize -= n;
    1c54:	14661800 	rsubk	r3, r6, r3
    buffer->buf = realloc(buffer->buf, buffer->bufsize);
    1c58:	e8a50004 	lwi	r5, r5, 4
    1c5c:	10c30000 	addk	r6, r3, r0
    1c60:	b0000000 	imm	0
    1c64:	b9f44f30 	brlid	r15, 20272	// 6b94 <realloc>
    1c68:	f8730000 	swi	r3, r19, 0
    1c6c:	f8730004 	swi	r3, r19, 4
  }
}
    1c70:	e9e10000 	lwi	r15, r1, 0
    1c74:	ea61001c 	lwi	r19, r1, 28
    1c78:	b60f0008 	rtsd	r15, 8
    1c7c:	30210020 	addik	r1, r1, 32
  }
}

void bytebuffer_del_back(ByteBuffer* buffer, size_t n) {
  if (n >= buffer->bufsize) {
    bytebuffer_free(buffer);
    1c80:	b9f4feac 	brlid	r15, -340	// 1b2c <bytebuffer_free>
    1c84:	80000000 	or	r0, r0, r0
  } else {
    buffer->bufsize -= n;
    buffer->buf = realloc(buffer->buf, buffer->bufsize);
  }
}
    1c88:	e9e10000 	lwi	r15, r1, 0
    1c8c:	ea61001c 	lwi	r19, r1, 28
    1c90:	b60f0008 	rtsd	r15, 8
    1c94:	30210020 	addik	r1, r1, 32

00001c98 <bytebuffer_del_front>:

void bytebuffer_del_front(ByteBuffer* buffer, size_t n) {
    1c98:	3021ffdc 	addik	r1, r1, -36
    1c9c:	fa61001c 	swi	r19, r1, 28
    1ca0:	fac10020 	swi	r22, r1, 32
    1ca4:	f9e10000 	swi	r15, r1, 0
  if (n >= buffer->bufsize) {
    1ca8:	e8e50000 	lwi	r7, r5, 0
    buffer->bufsize -= n;
    buffer->buf = realloc(buffer->buf, buffer->bufsize);
  }
}

void bytebuffer_del_front(ByteBuffer* buffer, size_t n) {
    1cac:	12c50000 	addk	r22, r5, r0
  if (n >= buffer->bufsize) {
    1cb0:	14673003 	cmpu	r3, r7, r6
    1cb4:	bea3003c 	bgeid	r3, 60		// 1cf0
    1cb8:	12660000 	addk	r19, r6, r0
    bytebuffer_free(buffer);
  } else {
    // shift original data back to front of buffer
    memmove(buffer->buf, buffer->buf + n, buffer->bufsize - n);
    1cbc:	e8a50004 	lwi	r5, r5, 4
    1cc0:	14e63800 	rsubk	r7, r6, r7
    1cc4:	b0000000 	imm	0
    1cc8:	b9f44090 	brlid	r15, 16528	// 5d58 <memmove>
    1ccc:	10c53000 	addk	r6, r5, r6
    bytebuffer_del_back(buffer, n);
    1cd0:	10b60000 	addk	r5, r22, r0
    1cd4:	b9f4ff64 	brlid	r15, -156	// 1c38 <bytebuffer_del_back>
    1cd8:	10d30000 	addk	r6, r19, r0
  }
}
    1cdc:	e9e10000 	lwi	r15, r1, 0
    1ce0:	ea61001c 	lwi	r19, r1, 28
    1ce4:	eac10020 	lwi	r22, r1, 32
    1ce8:	b60f0008 	rtsd	r15, 8
    1cec:	30210024 	addik	r1, r1, 36
  }
}

void bytebuffer_del_front(ByteBuffer* buffer, size_t n) {
  if (n >= buffer->bufsize) {
    bytebuffer_free(buffer);
    1cf0:	b9f4fe3c 	brlid	r15, -452	// 1b2c <bytebuffer_free>
    1cf4:	80000000 	or	r0, r0, r0
  } else {
    // shift original data back to front of buffer
    memmove(buffer->buf, buffer->buf + n, buffer->bufsize - n);
    bytebuffer_del_back(buffer, n);
  }
}
    1cf8:	e9e10000 	lwi	r15, r1, 0
    1cfc:	ea61001c 	lwi	r19, r1, 28
    1d00:	eac10020 	lwi	r22, r1, 32
    1d04:	b60f0008 	rtsd	r15, 8
    1d08:	30210024 	addik	r1, r1, 36

00001d0c <bytebuffer_pop>:

ByteBuffer bytebuffer_pop(ByteBuffer* buffer, size_t n) {
    1d0c:	3021ffd4 	addik	r1, r1, -44
    1d10:	fa61001c 	swi	r19, r1, 28
    1d14:	fac10020 	swi	r22, r1, 32
    1d18:	fae10024 	swi	r23, r1, 36
    1d1c:	f9e10000 	swi	r15, r1, 0
    1d20:	fb010028 	swi	r24, r1, 40
  ByteBuffer output;
  // the requested amount is greater than what we have, pop everything.
  if (n >= buffer->bufsize) {
    1d24:	eb060000 	lwi	r24, r6, 0
    memmove(buffer->buf, buffer->buf + n, buffer->bufsize - n);
    bytebuffer_del_back(buffer, n);
  }
}

ByteBuffer bytebuffer_pop(ByteBuffer* buffer, size_t n) {
    1d28:	12e60000 	addk	r23, r6, r0
    1d2c:	12c70000 	addk	r22, r7, r0
  ByteBuffer output;
  // the requested amount is greater than what we have, pop everything.
  if (n >= buffer->bufsize) {
    1d30:	14783803 	cmpu	r3, r24, r7
    1d34:	bea30060 	bgeid	r3, 96		// 1d94
    1d38:	12650000 	addk	r19, r5, r0
    output.buf = malloc(buffer->bufsize);
    memcpy(output.buf, buffer->buf, buffer->bufsize);
    bytebuffer_free(buffer);
    return output;
  }
  output.buf = malloc(n);
    1d3c:	b0000000 	imm	0
    1d40:	b9f431f8 	brlid	r15, 12792	// 4f38 <malloc>
    1d44:	10a70000 	addk	r5, r7, r0
  output.bufsize = n;
  memcpy(output.buf, buffer->buf, n);
    1d48:	10f60000 	addk	r7, r22, r0
    1d4c:	e8d70004 	lwi	r6, r23, 4
    1d50:	10a30000 	addk	r5, r3, r0
    1d54:	b0000000 	imm	0
    1d58:	b9f43dc0 	brlid	r15, 15808	// 5b18 <memcpy>
    1d5c:	13030000 	addk	r24, r3, r0
  bytebuffer_del_front(buffer, n);
    1d60:	10b70000 	addk	r5, r23, r0
    1d64:	b9f4ff34 	brlid	r15, -204	// 1c98 <bytebuffer_del_front>
    1d68:	10d60000 	addk	r6, r22, r0
  return output;
    1d6c:	fad30000 	swi	r22, r19, 0
    1d70:	fb130004 	swi	r24, r19, 4
}
    1d74:	10730000 	addk	r3, r19, r0
    1d78:	e9e10000 	lwi	r15, r1, 0
    1d7c:	ea61001c 	lwi	r19, r1, 28
    1d80:	eac10020 	lwi	r22, r1, 32
    1d84:	eae10024 	lwi	r23, r1, 36
    1d88:	eb010028 	lwi	r24, r1, 40
    1d8c:	b60f0008 	rtsd	r15, 8
    1d90:	3021002c 	addik	r1, r1, 44
ByteBuffer bytebuffer_pop(ByteBuffer* buffer, size_t n) {
  ByteBuffer output;
  // the requested amount is greater than what we have, pop everything.
  if (n >= buffer->bufsize) {
    output.bufsize = buffer->bufsize;
    output.buf = malloc(buffer->bufsize);
    1d94:	b0000000 	imm	0
    1d98:	b9f431a0 	brlid	r15, 12704	// 4f38 <malloc>
    1d9c:	10b80000 	addk	r5, r24, r0
    memcpy(output.buf, buffer->buf, buffer->bufsize);
    1da0:	e8d70004 	lwi	r6, r23, 4
    1da4:	10f80000 	addk	r7, r24, r0
    1da8:	10a30000 	addk	r5, r3, r0
    1dac:	b0000000 	imm	0
    1db0:	b9f43d68 	brlid	r15, 15720	// 5b18 <memcpy>
    1db4:	12c30000 	addk	r22, r3, r0
    bytebuffer_free(buffer);
    1db8:	b9f4fd74 	brlid	r15, -652	// 1b2c <bytebuffer_free>
    1dbc:	10b70000 	addk	r5, r23, r0
    return output;
    1dc0:	fb130000 	swi	r24, r19, 0
    1dc4:	fad30004 	swi	r22, r19, 4
  output.buf = malloc(n);
  output.bufsize = n;
  memcpy(output.buf, buffer->buf, n);
  bytebuffer_del_front(buffer, n);
  return output;
}
    1dc8:	10730000 	addk	r3, r19, r0
    1dcc:	e9e10000 	lwi	r15, r1, 0
    1dd0:	ea61001c 	lwi	r19, r1, 28
    1dd4:	eac10020 	lwi	r22, r1, 32
    1dd8:	eae10024 	lwi	r23, r1, 36
    1ddc:	eb010028 	lwi	r24, r1, 40
    1de0:	b60f0008 	rtsd	r15, 8
    1de4:	3021002c 	addik	r1, r1, 44

00001de8 <bytebuffer_read_fd>:

ssize_t bytebuffer_read_fd(ByteBuffer* buffer, int fd, size_t n) {
    1de8:	3021ffd0 	addik	r1, r1, -48
    1dec:	fb01002c 	swi	r24, r1, 44
    1df0:	13060000 	addk	r24, r6, r0
  size_t original_size = buffer->bufsize;
  bytebuffer_reserve_back(buffer, n);
    1df4:	10c70000 	addk	r6, r7, r0
  memcpy(output.buf, buffer->buf, n);
  bytebuffer_del_front(buffer, n);
  return output;
}

ssize_t bytebuffer_read_fd(ByteBuffer* buffer, int fd, size_t n) {
    1df8:	fa610020 	swi	r19, r1, 32
    1dfc:	12650000 	addk	r19, r5, r0
    1e00:	f9e10000 	swi	r15, r1, 0
    1e04:	fac10024 	swi	r22, r1, 36
    1e08:	fae10028 	swi	r23, r1, 40
    1e0c:	12c70000 	addk	r22, r7, r0
  size_t original_size = buffer->bufsize;
  bytebuffer_reserve_back(buffer, n);
    1e10:	b9f4fd50 	brlid	r15, -688	// 1b60 <bytebuffer_reserve_back>
    1e14:	eae50000 	lwi	r23, r5, 0
  ssize_t bytes_read = read(fd, &(buffer->buf[original_size]), n);
    1e18:	e8d30004 	lwi	r6, r19, 4
    1e1c:	10f60000 	addk	r7, r22, r0
    1e20:	10b80000 	addk	r5, r24, r0
    1e24:	b0000000 	imm	0
    1e28:	b9f41788 	brlid	r15, 6024	// 35b0 <read>
    1e2c:	10c6b800 	addk	r6, r6, r23
  // unallocate any leftover room at the end of the buffer
  bytebuffer_del_back(buffer, n - bytes_read);
    1e30:	10b30000 	addk	r5, r19, r0
    1e34:	14c3b000 	rsubk	r6, r3, r22
    1e38:	b9f4fe00 	brlid	r15, -512	// 1c38 <bytebuffer_del_back>
    1e3c:	f861001c 	swi	r3, r1, 28
  return bytes_read;
}
    1e40:	e861001c 	lwi	r3, r1, 28
    1e44:	e9e10000 	lwi	r15, r1, 0
    1e48:	ea610020 	lwi	r19, r1, 32
    1e4c:	eac10024 	lwi	r22, r1, 36
    1e50:	eae10028 	lwi	r23, r1, 40
    1e54:	eb01002c 	lwi	r24, r1, 44
    1e58:	b60f0008 	rtsd	r15, 8
    1e5c:	30210030 	addik	r1, r1, 48

00001e60 <cbuffer_new>:
#ifndef max
#define max(a,b) (((a) (b)) ? (a) : (b))
#define min(a,b) (((a) < (b)) ? (a) : (b))
#endif

CircularBuffer* cbuffer_new(void) {
    1e60:	3021ffe0 	addik	r1, r1, -32
  CircularBuffer* output = malloc(sizeof(CircularBuffer));
    1e64:	30a0000c 	addik	r5, r0, 12
#ifndef max
#define max(a,b) (((a) (b)) ? (a) : (b))
#define min(a,b) (((a) < (b)) ? (a) : (b))
#endif

CircularBuffer* cbuffer_new(void) {
    1e68:	f9e10000 	swi	r15, r1, 0
  CircularBuffer* output = malloc(sizeof(CircularBuffer));
    1e6c:	b0000000 	imm	0
    1e70:	b9f430c8 	brlid	r15, 12488	// 4f38 <malloc>
    1e74:	fa61001c 	swi	r19, r1, 28
    1e78:	12630000 	addk	r19, r3, r0
  output->data = malloc(IO_BUFFER_SIZE * sizeof(uint32_t));
    1e7c:	b0000000 	imm	0
    1e80:	b9f430b8 	brlid	r15, 12472	// 4f38 <malloc>
    1e84:	30a00100 	addik	r5, r0, 256
    1e88:	f8730000 	swi	r3, r19, 0
  output->tail = 0;
    1e8c:	f8130004 	swi	r0, r19, 4
  output->pos = 0;
  return output;
}
    1e90:	10730000 	addk	r3, r19, r0

CircularBuffer* cbuffer_new(void) {
  CircularBuffer* output = malloc(sizeof(CircularBuffer));
  output->data = malloc(IO_BUFFER_SIZE * sizeof(uint32_t));
  output->tail = 0;
  output->pos = 0;
    1e94:	f8130008 	swi	r0, r19, 8
  return output;
}
    1e98:	e9e10000 	lwi	r15, r1, 0
    1e9c:	ea61001c 	lwi	r19, r1, 28
    1ea0:	b60f0008 	rtsd	r15, 8
    1ea4:	30210020 	addik	r1, r1, 32

00001ea8 <cbuffer_copy>:

CircularBuffer* cbuffer_copy(CircularBuffer* from) {
    1ea8:	3021ffdc 	addik	r1, r1, -36
    1eac:	fac10020 	swi	r22, r1, 32
    1eb0:	12c50000 	addk	r22, r5, r0
  CircularBuffer* output = malloc(sizeof(CircularBuffer));
    1eb4:	30a0000c 	addik	r5, r0, 12
  output->tail = 0;
  output->pos = 0;
  return output;
}

CircularBuffer* cbuffer_copy(CircularBuffer* from) {
    1eb8:	f9e10000 	swi	r15, r1, 0
  CircularBuffer* output = malloc(sizeof(CircularBuffer));
    1ebc:	b0000000 	imm	0
    1ec0:	b9f43078 	brlid	r15, 12408	// 4f38 <malloc>
    1ec4:	fa61001c 	swi	r19, r1, 28
  output->data = malloc(IO_BUFFER_SIZE * sizeof(uint32_t));
    1ec8:	30a00100 	addik	r5, r0, 256
    1ecc:	b0000000 	imm	0
    1ed0:	b9f43068 	brlid	r15, 12392	// 4f38 <malloc>
    1ed4:	12630000 	addk	r19, r3, r0
  memcpy(output->data, from->data, IO_BUFFER_SIZE * sizeof(uint32_t));
    1ed8:	e8d60000 	lwi	r6, r22, 0
    1edc:	10a30000 	addk	r5, r3, r0
    1ee0:	30e00100 	addik	r7, r0, 256
    1ee4:	b0000000 	imm	0
    1ee8:	b9f43c30 	brlid	r15, 15408	// 5b18 <memcpy>
    1eec:	f8730000 	swi	r3, r19, 0
  output->tail = from->tail;
    1ef0:	e8960004 	lwi	r4, r22, 4
  output->pos = from->pos;
    1ef4:	ead60008 	lwi	r22, r22, 8
  return output;
}
    1ef8:	10730000 	addk	r3, r19, r0

CircularBuffer* cbuffer_copy(CircularBuffer* from) {
  CircularBuffer* output = malloc(sizeof(CircularBuffer));
  output->data = malloc(IO_BUFFER_SIZE * sizeof(uint32_t));
  memcpy(output->data, from->data, IO_BUFFER_SIZE * sizeof(uint32_t));
  output->tail = from->tail;
    1efc:	f8930004 	swi	r4, r19, 4
  output->pos = from->pos;
    1f00:	fad30008 	swi	r22, r19, 8
  return output;
}
    1f04:	e9e10000 	lwi	r15, r1, 0
    1f08:	ea61001c 	lwi	r19, r1, 28
    1f0c:	eac10020 	lwi	r22, r1, 32
    1f10:	b60f0008 	rtsd	r15, 8
    1f14:	30210024 	addik	r1, r1, 36

00001f18 <cbuffer_size>:

uint32_t cbuffer_size(const CircularBuffer* buffer) {
  if (buffer->pos <= buffer->tail) 
    1f18:	e8650008 	lwi	r3, r5, 8
    1f1c:	e8850004 	lwi	r4, r5, 4
    1f20:	14a32003 	cmpu	r5, r3, r4
    1f24:	bca50010 	bgei	r5, 16		// 1f34
    return buffer->tail - buffer->pos;
  return buffer->tail + IO_BUFFER_SIZE - buffer->pos;
    1f28:	30840040 	addik	r4, r4, 64
}
    1f2c:	b60f0008 	rtsd	r15, 8
    1f30:	14632000 	rsubk	r3, r3, r4
  return output;
}

uint32_t cbuffer_size(const CircularBuffer* buffer) {
  if (buffer->pos <= buffer->tail) 
    return buffer->tail - buffer->pos;
    1f34:	b60f0008 	rtsd	r15, 8
    1f38:	14632000 	rsubk	r3, r3, r4

00001f3c <cbuffer_contiguous_data_size>:
  return buffer->tail + IO_BUFFER_SIZE - buffer->pos;
}

uint32_t cbuffer_contiguous_data_size(const CircularBuffer* buffer) {
  if (buffer->pos <= buffer->tail) 
    1f3c:	e8850008 	lwi	r4, r5, 8
    1f40:	e8a50004 	lwi	r5, r5, 4
    return buffer->tail - buffer->pos;
  return IO_BUFFER_SIZE - buffer->pos;
    1f44:	30c00040 	addik	r6, r0, 64
    1f48:	14643000 	rsubk	r3, r4, r6
    return buffer->tail - buffer->pos;
  return buffer->tail + IO_BUFFER_SIZE - buffer->pos;
}

uint32_t cbuffer_contiguous_data_size(const CircularBuffer* buffer) {
  if (buffer->pos <= buffer->tail) 
    1f4c:	14c42803 	cmpu	r6, r4, r5
    1f50:	bca6000c 	bgei	r6, 12		// 1f5c
    return buffer->tail - buffer->pos;
  return IO_BUFFER_SIZE - buffer->pos;
}
    1f54:	b60f0008 	rtsd	r15, 8
    1f58:	80000000 	or	r0, r0, r0
    1f5c:	b60f0008 	rtsd	r15, 8
    1f60:	14642800 	rsubk	r3, r4, r5

00001f64 <cbuffer_free>:

void cbuffer_free(CircularBuffer* tokill) {
    1f64:	3021ffe0 	addik	r1, r1, -32
    1f68:	f9e10000 	swi	r15, r1, 0
    1f6c:	fa61001c 	swi	r19, r1, 28
    1f70:	12650000 	addk	r19, r5, r0
  free(tokill->data);
    1f74:	b0000000 	imm	0
    1f78:	b9f42fec 	brlid	r15, 12268	// 4f64 <free>
    1f7c:	e8a50000 	lwi	r5, r5, 0
  free(tokill);
    1f80:	b0000000 	imm	0
    1f84:	b9f42fe0 	brlid	r15, 12256	// 4f64 <free>
    1f88:	10b30000 	addk	r5, r19, r0
}
    1f8c:	e9e10000 	lwi	r15, r1, 0
    1f90:	ea61001c 	lwi	r19, r1, 28
    1f94:	b60f0008 	rtsd	r15, 8
    1f98:	30210020 	addik	r1, r1, 32

00001f9c <cbuffer_value_at>:

uint32_t cbuffer_value_at(const CircularBuffer* buf, uint32_t idx) {
  uint32_t actual_idx = (buf->pos + idx) % IO_BUFFER_SIZE;
    1f9c:	e8850008 	lwi	r4, r5, 8
  return buf->data[actual_idx];
    1fa0:	e8650000 	lwi	r3, r5, 0
  free(tokill->data);
  free(tokill);
}

uint32_t cbuffer_value_at(const CircularBuffer* buf, uint32_t idx) {
  uint32_t actual_idx = (buf->pos + idx) % IO_BUFFER_SIZE;
    1fa4:	10c62000 	addk	r6, r6, r4
    1fa8:	a4c6003f 	andi	r6, r6, 63
  return buf->data[actual_idx];
    1fac:	60c60004 	muli	r6, r6, 4
}
    1fb0:	b60f0008 	rtsd	r15, 8
    1fb4:	c8661800 	lw	r3, r6, r3

00001fb8 <cbuffer_value_at_net>:
  free(tokill->data);
  free(tokill);
}

uint32_t cbuffer_value_at(const CircularBuffer* buf, uint32_t idx) {
  uint32_t actual_idx = (buf->pos + idx) % IO_BUFFER_SIZE;
    1fb8:	e8850008 	lwi	r4, r5, 8
  return buf->data[actual_idx];
    1fbc:	e8650000 	lwi	r3, r5, 0
  free(tokill->data);
  free(tokill);
}

uint32_t cbuffer_value_at(const CircularBuffer* buf, uint32_t idx) {
  uint32_t actual_idx = (buf->pos + idx) % IO_BUFFER_SIZE;
    1fc0:	10c62000 	addk	r6, r6, r4
    1fc4:	a4c6003f 	andi	r6, r6, 63
  return buf->data[actual_idx];
    1fc8:	60c60004 	muli	r6, r6, 4
    1fcc:	c8661800 	lw	r3, r6, r3
}

uint32_t cbuffer_value_at_net(const CircularBuffer* buf, uint32_t idx) {
  return network_to_host(cbuffer_value_at(buf, idx));
    1fd0:	b0000000 	imm	0
    1fd4:	a4a3ffff 	andi	r5, r3, -1
    1fd8:	10801800 	addk	r4, r0, r3
    1fdc:	90830041 	srl	r4, r3
    1fe0:	90840041 	srl	r4, r4
    1fe4:	90840041 	srl	r4, r4
    1fe8:	90840041 	srl	r4, r4
    1fec:	90840041 	srl	r4, r4
    1ff0:	90840041 	srl	r4, r4
    1ff4:	90840041 	srl	r4, r4
    1ff8:	90840041 	srl	r4, r4
    1ffc:	90840041 	srl	r4, r4
    2000:	90840041 	srl	r4, r4
    2004:	90840041 	srl	r4, r4
    2008:	90840041 	srl	r4, r4
    200c:	90840041 	srl	r4, r4
    2010:	90840041 	srl	r4, r4
    2014:	90840041 	srl	r4, r4
    2018:	90840041 	srl	r4, r4
    201c:	60e50100 	muli	r7, r5, 256
    2020:	60640100 	muli	r3, r4, 256
    2024:	10c02800 	addk	r6, r0, r5
    2028:	90c50041 	srl	r6, r5
    202c:	90c60041 	srl	r6, r6
    2030:	90c60041 	srl	r6, r6
    2034:	90c60041 	srl	r6, r6
    2038:	90c60041 	srl	r6, r6
    203c:	90c60041 	srl	r6, r6
    2040:	90c60041 	srl	r6, r6
    2044:	90c60041 	srl	r6, r6
    2048:	b0000000 	imm	0
    204c:	a463ffff 	andi	r3, r3, -1
    2050:	80c73000 	or	r6, r7, r6
    2054:	10a02000 	addk	r5, r0, r4
    2058:	90a40041 	srl	r5, r4
    205c:	90a50041 	srl	r5, r5
    2060:	90a50041 	srl	r5, r5
    2064:	90a50041 	srl	r5, r5
    2068:	90a50041 	srl	r5, r5
    206c:	90a50041 	srl	r5, r5
    2070:	90a50041 	srl	r5, r5
    2074:	90a50041 	srl	r5, r5
    2078:	b0000001 	imm	1
    207c:	60860000 	muli	r4, r6, 0
    2080:	80632800 	or	r3, r3, r5
}
    2084:	b60f0008 	rtsd	r15, 8
    2088:	80632000 	or	r3, r3, r4

0000208c <cbuffer_freespace>:

uint32_t cbuffer_freespace(const CircularBuffer* buf) {
    208c:	3021ffe4 	addik	r1, r1, -28
    2090:	f9e10000 	swi	r15, r1, 0
  return IO_BUFFER_SIZE - cbuffer_size(buf) - 1;
    2094:	b9f4fe84 	brlid	r15, -380	// 1f18 <cbuffer_size>
    2098:	80000000 	or	r0, r0, r0
}
    209c:	e9e10000 	lwi	r15, r1, 0
    20a0:	3080003f 	addik	r4, r0, 63
    20a4:	14632000 	rsubk	r3, r3, r4
    20a8:	b60f0008 	rtsd	r15, 8
    20ac:	3021001c 	addik	r1, r1, 28

000020b0 <cbuffer_append>:

int cbuffer_append(CircularBuffer* buffer, void* data, uint32_t nwords) {
    20b0:	3021ffd4 	addik	r1, r1, -44
    20b4:	fac10020 	swi	r22, r1, 32
    20b8:	12c70000 	addk	r22, r7, r0
    20bc:	fa61001c 	swi	r19, r1, 28
    20c0:	fb010028 	swi	r24, r1, 40
    20c4:	f9e10000 	swi	r15, r1, 0
    20c8:	fae10024 	swi	r23, r1, 36
    20cc:	12650000 	addk	r19, r5, r0
  uint32_t freespace = cbuffer_freespace(buffer);
    20d0:	b9f4ffbc 	brlid	r15, -68	// 208c <cbuffer_freespace>
    20d4:	13060000 	addk	r24, r6, r0
  if (freespace < nwords) {
    20d8:	14761803 	cmpu	r3, r22, r3
    20dc:	be43005c 	bltid	r3, 92		// 2138
    20e0:	3080ffff 	addik	r4, r0, -1
  }

  // words available on "tail" until we hit the absolute end of the memory.
  // we know from the freespace check that we can't overwrite the head with
  // only <nwords>.
  uint32_t tail_length = IO_BUFFER_SIZE - buffer->tail;
    20e4:	e8b30004 	lwi	r5, r19, 4
    20e8:	30600040 	addik	r3, r0, 64

  memcpy(
    20ec:	e8930000 	lwi	r4, r19, 0
  }

  // words available on "tail" until we hit the absolute end of the memory.
  // we know from the freespace check that we can't overwrite the head with
  // only <nwords>.
  uint32_t tail_length = IO_BUFFER_SIZE - buffer->tail;
    20f0:	16e51800 	rsubk	r23, r5, r3

  memcpy(
      &(buffer->data[buffer->tail]),
      data, 
      sizeof(uint32_t) * min(nwords, tail_length));
    20f4:	1476b803 	cmpu	r3, r22, r23
  // we know from the freespace check that we can't overwrite the head with
  // only <nwords>.
  uint32_t tail_length = IO_BUFFER_SIZE - buffer->tail;

  memcpy(
      &(buffer->data[buffer->tail]),
    20f8:	60a50004 	muli	r5, r5, 4
      data, 
      sizeof(uint32_t) * min(nwords, tail_length));
    20fc:	10f60000 	addk	r7, r22, r0
    2100:	be430078 	bltid	r3, 120		// 2178
    2104:	10a42800 	addk	r5, r4, r5
  // words available on "tail" until we hit the absolute end of the memory.
  // we know from the freespace check that we can't overwrite the head with
  // only <nwords>.
  uint32_t tail_length = IO_BUFFER_SIZE - buffer->tail;

  memcpy(
    2108:	10d80000 	addk	r6, r24, r0
    210c:	b0000000 	imm	0
    2110:	b9f43a08 	brlid	r15, 14856	// 5b18 <memcpy>
    2114:	60e70004 	muli	r7, r7, 4
      &(buffer->data[buffer->tail]),
      data, 
      sizeof(uint32_t) * min(nwords, tail_length));

  // if we didn't write everything, we need to wrap around to the beginning.
  if (tail_length < nwords) {
    2118:	1476b803 	cmpu	r3, r22, r23
    211c:	be43003c 	bltid	r3, 60		// 2158
    2120:	60d70004 	muli	r6, r23, 4
    memcpy(
        buffer->data, 
        data + sizeof(uint32_t) * tail_length,
        sizeof(uint32_t) * (nwords - tail_length));
  }
  buffer->tail = (buffer->tail + nwords) % IO_BUFFER_SIZE;
    2124:	e8730004 	lwi	r3, r19, 4
  return 0;
    2128:	10800000 	addk	r4, r0, r0
    memcpy(
        buffer->data, 
        data + sizeof(uint32_t) * tail_length,
        sizeof(uint32_t) * (nwords - tail_length));
  }
  buffer->tail = (buffer->tail + nwords) % IO_BUFFER_SIZE;
    212c:	12d61800 	addk	r22, r22, r3
    2130:	a6d6003f 	andi	r22, r22, 63
    2134:	fad30004 	swi	r22, r19, 4
  return 0;
}
    2138:	10640000 	addk	r3, r4, r0
    213c:	e9e10000 	lwi	r15, r1, 0
    2140:	ea61001c 	lwi	r19, r1, 28
    2144:	eac10020 	lwi	r22, r1, 32
    2148:	eae10024 	lwi	r23, r1, 36
    214c:	eb010028 	lwi	r24, r1, 40
    2150:	b60f0008 	rtsd	r15, 8
    2154:	3021002c 	addik	r1, r1, 44
      data, 
      sizeof(uint32_t) * min(nwords, tail_length));

  // if we didn't write everything, we need to wrap around to the beginning.
  if (tail_length < nwords) {
    memcpy(
    2158:	e8b30000 	lwi	r5, r19, 0
        buffer->data, 
        data + sizeof(uint32_t) * tail_length,
        sizeof(uint32_t) * (nwords - tail_length));
    215c:	14f7b000 	rsubk	r7, r23, r22
      data, 
      sizeof(uint32_t) * min(nwords, tail_length));

  // if we didn't write everything, we need to wrap around to the beginning.
  if (tail_length < nwords) {
    memcpy(
    2160:	10d83000 	addk	r6, r24, r6
    2164:	b0000000 	imm	0
    2168:	b9f439b0 	brlid	r15, 14768	// 5b18 <memcpy>
    216c:	60e70004 	muli	r7, r7, 4
        buffer->data, 
        data + sizeof(uint32_t) * tail_length,
        sizeof(uint32_t) * (nwords - tail_length));
  }
  buffer->tail = (buffer->tail + nwords) % IO_BUFFER_SIZE;
    2170:	b810ffb8 	brid	-72		// 2128
    2174:	e8730004 	lwi	r3, r19, 4
  uint32_t tail_length = IO_BUFFER_SIZE - buffer->tail;

  memcpy(
      &(buffer->data[buffer->tail]),
      data, 
      sizeof(uint32_t) * min(nwords, tail_length));
    2178:	b810ff90 	brid	-112		// 2108
    217c:	10f70000 	addk	r7, r23, r0

00002180 <cbuffer_push_back>:
  }
  buffer->tail = (buffer->tail + nwords) % IO_BUFFER_SIZE;
  return 0;
}

int cbuffer_push_back(CircularBuffer* buffer, uint32_t data) {
    2180:	3021ffdc 	addik	r1, r1, -36
    2184:	fa61001c 	swi	r19, r1, 28
    2188:	fac10020 	swi	r22, r1, 32
    218c:	f9e10000 	swi	r15, r1, 0
    2190:	12650000 	addk	r19, r5, r0
  uint32_t freespace = cbuffer_freespace(buffer);
    2194:	b9f4fef8 	brlid	r15, -264	// 208c <cbuffer_freespace>
    2198:	12c60000 	addk	r22, r6, r0
  if (freespace < 1) {
    219c:	be03002c 	beqid	r3, 44		// 21c8
    21a0:	3080ffff 	addik	r4, r0, -1
    return -1;
  }
  buffer->data[buffer->tail] = data;
    21a4:	e8730004 	lwi	r3, r19, 4
    21a8:	e8b30000 	lwi	r5, r19, 0
  buffer->tail = ((uint32_t)(buffer->tail + 1)) % IO_BUFFER_SIZE;
  return 0;
    21ac:	10800000 	addk	r4, r0, r0
int cbuffer_push_back(CircularBuffer* buffer, uint32_t data) {
  uint32_t freespace = cbuffer_freespace(buffer);
  if (freespace < 1) {
    return -1;
  }
  buffer->data[buffer->tail] = data;
    21b0:	60630004 	muli	r3, r3, 4
    21b4:	dac32800 	sw	r22, r3, r5
  buffer->tail = ((uint32_t)(buffer->tail + 1)) % IO_BUFFER_SIZE;
    21b8:	e8730004 	lwi	r3, r19, 4
    21bc:	30630001 	addik	r3, r3, 1
    21c0:	a463003f 	andi	r3, r3, 63
    21c4:	f8730004 	swi	r3, r19, 4
  return 0;
}
    21c8:	10640000 	addk	r3, r4, r0
    21cc:	e9e10000 	lwi	r15, r1, 0
    21d0:	ea61001c 	lwi	r19, r1, 28
    21d4:	eac10020 	lwi	r22, r1, 32
    21d8:	b60f0008 	rtsd	r15, 8
    21dc:	30210024 	addik	r1, r1, 36

000021e0 <cbuffer_push_back_net>:

int cbuffer_push_back_net(CircularBuffer* buffer, uint32_t data) {
  return cbuffer_push_back(buffer, host_to_network(data));
    21e0:	b0000000 	imm	0
    21e4:	a486ffff 	andi	r4, r6, -1
    21e8:	61040100 	muli	r8, r4, 256
    21ec:	10603000 	addk	r3, r0, r6
    21f0:	90660041 	srl	r3, r6
    21f4:	90630041 	srl	r3, r3
    21f8:	90630041 	srl	r3, r3
    21fc:	90630041 	srl	r3, r3
    2200:	90630041 	srl	r3, r3
    2204:	90630041 	srl	r3, r3
    2208:	90630041 	srl	r3, r3
    220c:	90630041 	srl	r3, r3
    2210:	90630041 	srl	r3, r3
    2214:	90630041 	srl	r3, r3
    2218:	90630041 	srl	r3, r3
    221c:	90630041 	srl	r3, r3
    2220:	90630041 	srl	r3, r3
    2224:	90630041 	srl	r3, r3
    2228:	90630041 	srl	r3, r3
    222c:	90630041 	srl	r3, r3
    2230:	60c30100 	muli	r6, r3, 256
    2234:	10e02000 	addk	r7, r0, r4
    2238:	90e40041 	srl	r7, r4
    223c:	90e70041 	srl	r7, r7
    2240:	90e70041 	srl	r7, r7
    2244:	90e70041 	srl	r7, r7
    2248:	90e70041 	srl	r7, r7
    224c:	90e70041 	srl	r7, r7
    2250:	90e70041 	srl	r7, r7
    2254:	90e70041 	srl	r7, r7
    2258:	b0000000 	imm	0
    225c:	a4c6ffff 	andi	r6, r6, -1
    2260:	80e83800 	or	r7, r8, r7
    2264:	10801800 	addk	r4, r0, r3
    2268:	90830041 	srl	r4, r3
    226c:	90840041 	srl	r4, r4
    2270:	90840041 	srl	r4, r4
    2274:	90840041 	srl	r4, r4
    2278:	90840041 	srl	r4, r4
    227c:	90840041 	srl	r4, r4
    2280:	90840041 	srl	r4, r4
    2284:	90840041 	srl	r4, r4
    2288:	b0000001 	imm	1
    228c:	60670000 	muli	r3, r7, 0
    2290:	80c62000 	or	r6, r6, r4
  buffer->data[buffer->tail] = data;
  buffer->tail = ((uint32_t)(buffer->tail + 1)) % IO_BUFFER_SIZE;
  return 0;
}

int cbuffer_push_back_net(CircularBuffer* buffer, uint32_t data) {
    2294:	3021ffe4 	addik	r1, r1, -28
    2298:	f9e10000 	swi	r15, r1, 0
  return cbuffer_push_back(buffer, host_to_network(data));
    229c:	b9f4fee4 	brlid	r15, -284	// 2180 <cbuffer_push_back>
    22a0:	80c61800 	or	r6, r6, r3
}
    22a4:	e9e10000 	lwi	r15, r1, 0
    22a8:	b60f0008 	rtsd	r15, 8
    22ac:	3021001c 	addik	r1, r1, 28

000022b0 <cbuffer_read>:

uint32_t cbuffer_read(const CircularBuffer* buffer, uint32_t* output, uint32_t nwords) {
    22b0:	3021ffd0 	addik	r1, r1, -48
    22b4:	fb010028 	swi	r24, r1, 40
    22b8:	13070000 	addk	r24, r7, r0
    22bc:	fa61001c 	swi	r19, r1, 28
    22c0:	fac10020 	swi	r22, r1, 32
    22c4:	fae10024 	swi	r23, r1, 36
    22c8:	f9e10000 	swi	r15, r1, 0
    22cc:	fb21002c 	swi	r25, r1, 44
    22d0:	12c50000 	addk	r22, r5, r0
  uint32_t words_to_read = min(nwords, cbuffer_size(buffer));
    22d4:	b9f4fc44 	brlid	r15, -956	// 1f18 <cbuffer_size>
    22d8:	12e60000 	addk	r23, r6, r0
    22dc:	12630000 	addk	r19, r3, r0
    22e0:	1463c003 	cmpu	r3, r3, r24
    22e4:	bc4300c4 	blti	r3, 196		// 23a8
    return buffer->tail - buffer->pos;
  return buffer->tail + IO_BUFFER_SIZE - buffer->pos;
}

uint32_t cbuffer_contiguous_data_size(const CircularBuffer* buffer) {
  if (buffer->pos <= buffer->tail) 
    22e8:	e8960008 	lwi	r4, r22, 8
    22ec:	e8760004 	lwi	r3, r22, 4
    return buffer->tail - buffer->pos;
  return IO_BUFFER_SIZE - buffer->pos;
    22f0:	30c00040 	addik	r6, r0, 64
    22f4:	14a43000 	rsubk	r5, r4, r6
    return buffer->tail - buffer->pos;
  return buffer->tail + IO_BUFFER_SIZE - buffer->pos;
}

uint32_t cbuffer_contiguous_data_size(const CircularBuffer* buffer) {
  if (buffer->pos <= buffer->tail) 
    22f8:	14c41803 	cmpu	r6, r4, r3
    22fc:	be460010 	bltid	r6, 16		// 230c
    2300:	14a59803 	cmpu	r5, r5, r19
    return buffer->tail - buffer->pos;
    2304:	14a41800 	rsubk	r5, r4, r3
  return cbuffer_push_back(buffer, host_to_network(data));
}

uint32_t cbuffer_read(const CircularBuffer* buffer, uint32_t* output, uint32_t nwords) {
  uint32_t words_to_read = min(nwords, cbuffer_size(buffer));
  uint32_t tail_words_to_read = min(words_to_read, cbuffer_contiguous_data_size(buffer));
    2308:	14a59803 	cmpu	r5, r5, r19
    230c:	be45007c 	bltid	r5, 124		// 2388
    2310:	10b70000 	addk	r5, r23, r0
}

uint32_t cbuffer_contiguous_data_size(const CircularBuffer* buffer) {
  if (buffer->pos <= buffer->tail) 
    return buffer->tail - buffer->pos;
  return IO_BUFFER_SIZE - buffer->pos;
    2314:	30c00040 	addik	r6, r0, 64
    return buffer->tail - buffer->pos;
  return buffer->tail + IO_BUFFER_SIZE - buffer->pos;
}

uint32_t cbuffer_contiguous_data_size(const CircularBuffer* buffer) {
  if (buffer->pos <= buffer->tail) 
    2318:	14a41803 	cmpu	r5, r4, r3
    231c:	be45000c 	bltid	r5, 12		// 2328
    2320:	17043000 	rsubk	r24, r4, r6
    return buffer->tail - buffer->pos;
    2324:	17041800 	rsubk	r24, r4, r3
}

uint32_t cbuffer_read(const CircularBuffer* buffer, uint32_t* output, uint32_t nwords) {
  uint32_t words_to_read = min(nwords, cbuffer_size(buffer));
  uint32_t tail_words_to_read = min(words_to_read, cbuffer_contiguous_data_size(buffer));
  memcpy(
    2328:	e8d60000 	lwi	r6, r22, 0
    232c:	63380004 	muli	r25, r24, 4
    2330:	10b70000 	addk	r5, r23, r0
    2334:	10f90000 	addk	r7, r25, r0
      output,
      &(buffer->data[buffer->pos]),
    2338:	60840004 	muli	r4, r4, 4
}

uint32_t cbuffer_read(const CircularBuffer* buffer, uint32_t* output, uint32_t nwords) {
  uint32_t words_to_read = min(nwords, cbuffer_size(buffer));
  uint32_t tail_words_to_read = min(words_to_read, cbuffer_contiguous_data_size(buffer));
  memcpy(
    233c:	10c62000 	addk	r6, r6, r4
    2340:	b0000000 	imm	0
    2344:	b9f437d4 	brlid	r15, 14292	// 5b18 <memcpy>
    2348:	17189800 	rsubk	r24, r24, r19
      output,
      &(buffer->data[buffer->pos]),
      sizeof(uint32_t) * tail_words_to_read);
  // check if we need to wrap around.
  uint32_t remaining_words_at_head = words_to_read - tail_words_to_read;
  if (remaining_words_at_head) {
    234c:	be180018 	beqid	r24, 24		// 2364
    2350:	10b7c800 	addk	r5, r23, r25
    memcpy(
    2354:	e8d60000 	lwi	r6, r22, 0
    2358:	b0000000 	imm	0
    235c:	b9f437bc 	brlid	r15, 14268	// 5b18 <memcpy>
    2360:	60f80004 	muli	r7, r24, 4
        &(output[tail_words_to_read]), 
        buffer->data, 
        sizeof(uint32_t) * remaining_words_at_head);
  }
  return words_to_read;
}
    2364:	10730000 	addk	r3, r19, r0
    2368:	e9e10000 	lwi	r15, r1, 0
    236c:	ea61001c 	lwi	r19, r1, 28
    2370:	eac10020 	lwi	r22, r1, 32
    2374:	eae10024 	lwi	r23, r1, 36
    2378:	eb010028 	lwi	r24, r1, 40
    237c:	eb21002c 	lwi	r25, r1, 44
    2380:	b60f0008 	rtsd	r15, 8
    2384:	30210030 	addik	r1, r1, 48
}

uint32_t cbuffer_read(const CircularBuffer* buffer, uint32_t* output, uint32_t nwords) {
  uint32_t words_to_read = min(nwords, cbuffer_size(buffer));
  uint32_t tail_words_to_read = min(words_to_read, cbuffer_contiguous_data_size(buffer));
  memcpy(
    2388:	e8d60000 	lwi	r6, r22, 0
      output,
      &(buffer->data[buffer->pos]),
    238c:	60840004 	muli	r4, r4, 4
}

uint32_t cbuffer_read(const CircularBuffer* buffer, uint32_t* output, uint32_t nwords) {
  uint32_t words_to_read = min(nwords, cbuffer_size(buffer));
  uint32_t tail_words_to_read = min(words_to_read, cbuffer_contiguous_data_size(buffer));
  memcpy(
    2390:	10c62000 	addk	r6, r6, r4
    2394:	b0000000 	imm	0
    2398:	b9f43780 	brlid	r15, 14208	// 5b18 <memcpy>
    239c:	60f30004 	muli	r7, r19, 4
        &(output[tail_words_to_read]), 
        buffer->data, 
        sizeof(uint32_t) * remaining_words_at_head);
  }
  return words_to_read;
}
    23a0:	b810ffc8 	brid	-56		// 2368
    23a4:	10730000 	addk	r3, r19, r0
int cbuffer_push_back_net(CircularBuffer* buffer, uint32_t data) {
  return cbuffer_push_back(buffer, host_to_network(data));
}

uint32_t cbuffer_read(const CircularBuffer* buffer, uint32_t* output, uint32_t nwords) {
  uint32_t words_to_read = min(nwords, cbuffer_size(buffer));
    23a8:	b810ff40 	brid	-192		// 22e8
    23ac:	12780000 	addk	r19, r24, r0

000023b0 <cbuffer_deletefront>:
        sizeof(uint32_t) * remaining_words_at_head);
  }
  return words_to_read;
}

uint32_t cbuffer_deletefront(CircularBuffer* buffer, uint32_t nwords) {
    23b0:	3021ffdc 	addik	r1, r1, -36
    23b4:	fac10020 	swi	r22, r1, 32
    23b8:	12c60000 	addk	r22, r6, r0
    23bc:	fa61001c 	swi	r19, r1, 28
    23c0:	f9e10000 	swi	r15, r1, 0
  uint32_t words_to_delete = min(nwords, cbuffer_size(buffer));
    23c4:	b9f4fb54 	brlid	r15, -1196	// 1f18 <cbuffer_size>
    23c8:	12650000 	addk	r19, r5, r0
    23cc:	10830000 	addk	r4, r3, r0
    23d0:	1463b003 	cmpu	r3, r3, r22
    23d4:	bc43002c 	blti	r3, 44		// 2400
  buffer->pos += words_to_delete;
    23d8:	e8b30008 	lwi	r5, r19, 8
  buffer->pos %= IO_BUFFER_SIZE;
  return words_to_delete;
}
    23dc:	10640000 	addk	r3, r4, r0
  return words_to_read;
}

uint32_t cbuffer_deletefront(CircularBuffer* buffer, uint32_t nwords) {
  uint32_t words_to_delete = min(nwords, cbuffer_size(buffer));
  buffer->pos += words_to_delete;
    23e0:	10842800 	addk	r4, r4, r5
  buffer->pos %= IO_BUFFER_SIZE;
    23e4:	a484003f 	andi	r4, r4, 63
    23e8:	f8930008 	swi	r4, r19, 8
  return words_to_delete;
}
    23ec:	e9e10000 	lwi	r15, r1, 0
    23f0:	ea61001c 	lwi	r19, r1, 28
    23f4:	eac10020 	lwi	r22, r1, 32
    23f8:	b60f0008 	rtsd	r15, 8
    23fc:	30210024 	addik	r1, r1, 36
  }
  return words_to_read;
}

uint32_t cbuffer_deletefront(CircularBuffer* buffer, uint32_t nwords) {
  uint32_t words_to_delete = min(nwords, cbuffer_size(buffer));
    2400:	b810ffd8 	brid	-40		// 23d8
    2404:	10960000 	addk	r4, r22, r0

00002408 <cbuffer_pop>:
  buffer->pos += words_to_delete;
  buffer->pos %= IO_BUFFER_SIZE;
  return words_to_delete;
}

Buffer* cbuffer_pop(CircularBuffer* buffer, uint32_t nwords) {
    2408:	3021ffd8 	addik	r1, r1, -40
    240c:	fac10020 	swi	r22, r1, 32
    2410:	fae10024 	swi	r23, r1, 36
    2414:	12c60000 	addk	r22, r6, r0
    2418:	12e50000 	addk	r23, r5, r0
  Buffer* output = buffer_new(NULL, nwords);
    241c:	10a00000 	addk	r5, r0, r0
  buffer->pos += words_to_delete;
  buffer->pos %= IO_BUFFER_SIZE;
  return words_to_delete;
}

Buffer* cbuffer_pop(CircularBuffer* buffer, uint32_t nwords) {
    2420:	f9e10000 	swi	r15, r1, 0
  Buffer* output = buffer_new(NULL, nwords);
    2424:	b000ffff 	imm	-1
    2428:	b9f4f550 	brlid	r15, -2736	// 1978 <buffer_new>
    242c:	fa61001c 	swi	r19, r1, 28
  uint32_t actually_read = cbuffer_read(buffer, output->data, nwords);
    2430:	10f60000 	addk	r7, r22, r0
    2434:	10b70000 	addk	r5, r23, r0
    2438:	e8c30000 	lwi	r6, r3, 0
    243c:	b9f4fe74 	brlid	r15, -396	// 22b0 <cbuffer_read>
    2440:	12630000 	addk	r19, r3, r0
  buffer_resize(output, actually_read);
    2444:	10b30000 	addk	r5, r19, r0
    2448:	b000ffff 	imm	-1
    244c:	b9f4f614 	brlid	r15, -2540	// 1a60 <buffer_resize>
    2450:	10c30000 	addk	r6, r3, r0
  cbuffer_deletefront(buffer, nwords);
    2454:	10b70000 	addk	r5, r23, r0
    2458:	b9f4ff58 	brlid	r15, -168	// 23b0 <cbuffer_deletefront>
    245c:	10d60000 	addk	r6, r22, r0
  return output;
}
    2460:	10730000 	addk	r3, r19, r0
    2464:	e9e10000 	lwi	r15, r1, 0
    2468:	ea61001c 	lwi	r19, r1, 28
    246c:	eac10020 	lwi	r22, r1, 32
    2470:	eae10024 	lwi	r23, r1, 36
    2474:	b60f0008 	rtsd	r15, 8
    2478:	30210028 	addik	r1, r1, 40

0000247c <cbuffer_pop_front>:

uint32_t cbuffer_pop_front(CircularBuffer* buffer) {
    247c:	3021ffdc 	addik	r1, r1, -36
    2480:	fa61001c 	swi	r19, r1, 28
    2484:	fac10020 	swi	r22, r1, 32
    2488:	f9e10000 	swi	r15, r1, 0
  if (!cbuffer_size(buffer)) 
    248c:	b9f4fa8c 	brlid	r15, -1396	// 1f18 <cbuffer_size>
    2490:	12c50000 	addk	r22, r5, r0
    return 0xDEADBEEF;
    2494:	b000dead 	imm	-8531
    2498:	3260beef 	addik	r19, r0, -16657
  cbuffer_deletefront(buffer, nwords);
  return output;
}

uint32_t cbuffer_pop_front(CircularBuffer* buffer) {
  if (!cbuffer_size(buffer)) 
    249c:	be23001c 	bneid	r3, 28		// 24b8
    24a0:	10730000 	addk	r3, r19, r0
    return 0xDEADBEEF;
  uint32_t output = cbuffer_value_at(buffer, 0);
  cbuffer_deletefront(buffer, 1);
  return output;
}
    24a4:	e9e10000 	lwi	r15, r1, 0
    24a8:	ea61001c 	lwi	r19, r1, 28
    24ac:	eac10020 	lwi	r22, r1, 32
    24b0:	b60f0008 	rtsd	r15, 8
    24b4:	30210024 	addik	r1, r1, 36
  free(tokill->data);
  free(tokill);
}

uint32_t cbuffer_value_at(const CircularBuffer* buf, uint32_t idx) {
  uint32_t actual_idx = (buf->pos + idx) % IO_BUFFER_SIZE;
    24b8:	e8760008 	lwi	r3, r22, 8
  return buf->data[actual_idx];
    24bc:	e8960000 	lwi	r4, r22, 0

uint32_t cbuffer_pop_front(CircularBuffer* buffer) {
  if (!cbuffer_size(buffer)) 
    return 0xDEADBEEF;
  uint32_t output = cbuffer_value_at(buffer, 0);
  cbuffer_deletefront(buffer, 1);
    24c0:	10b60000 	addk	r5, r22, r0
  free(tokill->data);
  free(tokill);
}

uint32_t cbuffer_value_at(const CircularBuffer* buf, uint32_t idx) {
  uint32_t actual_idx = (buf->pos + idx) % IO_BUFFER_SIZE;
    24c4:	a463003f 	andi	r3, r3, 63
  return buf->data[actual_idx];
    24c8:	60630004 	muli	r3, r3, 4
    24cc:	ca632000 	lw	r19, r3, r4

uint32_t cbuffer_pop_front(CircularBuffer* buffer) {
  if (!cbuffer_size(buffer)) 
    return 0xDEADBEEF;
  uint32_t output = cbuffer_value_at(buffer, 0);
  cbuffer_deletefront(buffer, 1);
    24d0:	b9f4fee0 	brlid	r15, -288	// 23b0 <cbuffer_deletefront>
    24d4:	30c00001 	addik	r6, r0, 1
  return output;
}
    24d8:	10730000 	addk	r3, r19, r0
    24dc:	e9e10000 	lwi	r15, r1, 0
    24e0:	ea61001c 	lwi	r19, r1, 28
    24e4:	eac10020 	lwi	r22, r1, 32
    24e8:	b60f0008 	rtsd	r15, 8
    24ec:	30210024 	addik	r1, r1, 36

000024f0 <cbuffer_write_fd>:

ssize_t cbuffer_write_fd(CircularBuffer* buffer, int fd, size_t nwords) {
    24f0:	3021ffd0 	addik	r1, r1, -48
    24f4:	fa61001c 	swi	r19, r1, 28
    24f8:	fac10020 	swi	r22, r1, 32
    24fc:	fb010028 	swi	r24, r1, 40
    2500:	fb21002c 	swi	r25, r1, 44
    2504:	f9e10000 	swi	r15, r1, 0
    2508:	fae10024 	swi	r23, r1, 36
    250c:	12670000 	addk	r19, r7, r0
    2510:	12c50000 	addk	r22, r5, r0
    2514:	13260000 	addk	r25, r6, r0
  if (!nwords) {
    2518:	be0700b0 	beqid	r7, 176		// 25c8
    251c:	13070000 	addk	r24, r7, r0
    2520:	b8100088 	brid	136		// 25a8
    2524:	13000000 	addk	r24, r0, r0
    return buffer->tail - buffer->pos;
  return buffer->tail + IO_BUFFER_SIZE - buffer->pos;
}

uint32_t cbuffer_contiguous_data_size(const CircularBuffer* buffer) {
  if (buffer->pos <= buffer->tail) 
    2528:	e8960008 	lwi	r4, r22, 8
    252c:	e9160004 	lwi	r8, r22, 4
    return buffer->tail - buffer->pos;
  return IO_BUFFER_SIZE - buffer->pos;
    2530:	30c00040 	addik	r6, r0, 64
ssize_t cbuffer_write_fd(CircularBuffer* buffer, int fd, size_t nwords) {
  if (!nwords) {
    return 0;
  }
  uint32_t words_to_write = min(nwords, cbuffer_size(buffer));
  uint32_t tail_words_to_read = min(words_to_write, cbuffer_contiguous_data_size(buffer));
    2534:	10e90000 	addk	r7, r9, r0
    return buffer->tail - buffer->pos;
  return buffer->tail + IO_BUFFER_SIZE - buffer->pos;
}

uint32_t cbuffer_contiguous_data_size(const CircularBuffer* buffer) {
  if (buffer->pos <= buffer->tail) 
    2538:	15644003 	cmpu	r11, r4, r8
  if (!nwords) {
    return 0;
  }
  uint32_t words_to_write = min(nwords, cbuffer_size(buffer));
  uint32_t tail_words_to_read = min(words_to_write, cbuffer_contiguous_data_size(buffer));
  ssize_t written = write(fd, &(buffer->data[buffer->pos]), 
    253c:	61440004 	muli	r10, r4, 4
    return buffer->tail - buffer->pos;
  return buffer->tail + IO_BUFFER_SIZE - buffer->pos;
}

uint32_t cbuffer_contiguous_data_size(const CircularBuffer* buffer) {
  if (buffer->pos <= buffer->tail) 
    2540:	15844003 	cmpu	r12, r4, r8
    2544:	be4b000c 	bltid	r11, 12		// 2550
    2548:	14643000 	rsubk	r3, r4, r6
    return buffer->tail - buffer->pos;
    254c:	14644000 	rsubk	r3, r4, r8
ssize_t cbuffer_write_fd(CircularBuffer* buffer, int fd, size_t nwords) {
  if (!nwords) {
    return 0;
  }
  uint32_t words_to_write = min(nwords, cbuffer_size(buffer));
  uint32_t tail_words_to_read = min(words_to_write, cbuffer_contiguous_data_size(buffer));
    2550:	15234803 	cmpu	r9, r3, r9
    2554:	be490014 	bltid	r9, 20		// 2568
    2558:	30600040 	addik	r3, r0, 64
    return buffer->tail - buffer->pos;
  return buffer->tail + IO_BUFFER_SIZE - buffer->pos;
}

uint32_t cbuffer_contiguous_data_size(const CircularBuffer* buffer) {
  if (buffer->pos <= buffer->tail) 
    255c:	be4c000c 	bltid	r12, 12		// 2568
    2560:	14e41800 	rsubk	r7, r4, r3
    return buffer->tail - buffer->pos;
    2564:	14e44000 	rsubk	r7, r4, r8
  if (!nwords) {
    return 0;
  }
  uint32_t words_to_write = min(nwords, cbuffer_size(buffer));
  uint32_t tail_words_to_read = min(words_to_write, cbuffer_contiguous_data_size(buffer));
  ssize_t written = write(fd, &(buffer->data[buffer->pos]), 
    2568:	e8d60000 	lwi	r6, r22, 0
    256c:	60e70004 	muli	r7, r7, 4
    2570:	b0000000 	imm	0
    2574:	b9f40fa8 	brlid	r15, 4008	// 351c <write>
    2578:	10c65000 	addk	r6, r6, r10
      tail_words_to_read * sizeof(uint32_t)) / sizeof(uint32_t);
    257c:	12e01800 	addk	r23, r0, r3
    2580:	92e30041 	srl	r23, r3
    2584:	92f70041 	srl	r23, r23
  cbuffer_deletefront(buffer, written);
    2588:	10b60000 	addk	r5, r22, r0
    258c:	10d70000 	addk	r6, r23, r0
    2590:	b9f4fe20 	brlid	r15, -480	// 23b0 <cbuffer_deletefront>
    2594:	16779800 	rsubk	r19, r23, r19
  if (written == 0)
    2598:	be170034 	beqid	r23, 52		// 25cc
    259c:	10780000 	addk	r3, r24, r0
  cbuffer_deletefront(buffer, 1);
  return output;
}

ssize_t cbuffer_write_fd(CircularBuffer* buffer, int fd, size_t nwords) {
  if (!nwords) {
    25a0:	be130028 	beqid	r19, 40		// 25c8
    25a4:	1318b800 	addk	r24, r24, r23
    return 0;
  }
  uint32_t words_to_write = min(nwords, cbuffer_size(buffer));
    25a8:	b9f4f970 	brlid	r15, -1680	// 1f18 <cbuffer_size>
    25ac:	10b60000 	addk	r5, r22, r0
    25b0:	14931803 	cmpu	r4, r19, r3
  uint32_t tail_words_to_read = min(words_to_write, cbuffer_contiguous_data_size(buffer));
  ssize_t written = write(fd, &(buffer->data[buffer->pos]), 
    25b4:	10b90000 	addk	r5, r25, r0

ssize_t cbuffer_write_fd(CircularBuffer* buffer, int fd, size_t nwords) {
  if (!nwords) {
    return 0;
  }
  uint32_t words_to_write = min(nwords, cbuffer_size(buffer));
    25b8:	bea4ff70 	bgeid	r4, -144		// 2528
    25bc:	11330000 	addk	r9, r19, r0
    25c0:	b810ff68 	brid	-152		// 2528
    25c4:	11230000 	addk	r9, r3, r0
      tail_words_to_read * sizeof(uint32_t)) / sizeof(uint32_t);
  cbuffer_deletefront(buffer, written);
  if (written == 0)
    return 0;
  return written + cbuffer_write_fd(buffer, fd, nwords - written);
}
    25c8:	10780000 	addk	r3, r24, r0
    25cc:	e9e10000 	lwi	r15, r1, 0
    25d0:	ea61001c 	lwi	r19, r1, 28
    25d4:	eac10020 	lwi	r22, r1, 32
    25d8:	eae10024 	lwi	r23, r1, 36
    25dc:	eb010028 	lwi	r24, r1, 40
    25e0:	eb21002c 	lwi	r25, r1, 44
    25e4:	b60f0008 	rtsd	r15, 8
    25e8:	30210030 	addik	r1, r1, 48

000025ec <cbuffer_read_fd>:

ssize_t cbuffer_read_fd(CircularBuffer* buffer, int fd, size_t nwords) {
    25ec:	3021ffd0 	addik	r1, r1, -48
    25f0:	fa61001c 	swi	r19, r1, 28
    25f4:	fac10020 	swi	r22, r1, 32
    25f8:	fb010028 	swi	r24, r1, 40
    25fc:	fb21002c 	swi	r25, r1, 44
    2600:	f9e10000 	swi	r15, r1, 0
    2604:	fae10024 	swi	r23, r1, 36
    2608:	12670000 	addk	r19, r7, r0
    260c:	12c50000 	addk	r22, r5, r0
    2610:	13260000 	addk	r25, r6, r0
  if (!nwords) {
    2614:	be07009c 	beqid	r7, 156		// 26b0
    2618:	13070000 	addk	r24, r7, r0
    261c:	eae50004 	lwi	r23, r5, 4
    2620:	b8100050 	brid	80		// 2670
    2624:	13000000 	addk	r24, r0, r0
  // words available on "tail" until we hit the absolute end of the memory.
  // we know from the freespace check that we can't overwrite the head with
  // only <nwords>.
  words_to_read = min(IO_BUFFER_SIZE - buffer->tail, words_to_read);

  ssize_t words_read = read(fd, &(buffer->data[buffer->tail]), 
    2628:	e8d60000 	lwi	r6, r22, 0
  size_t words_to_read = min(nwords, freespace);

  // words available on "tail" until we hit the absolute end of the memory.
  // we know from the freespace check that we can't overwrite the head with
  // only <nwords>.
  words_to_read = min(IO_BUFFER_SIZE - buffer->tail, words_to_read);
    262c:	14672003 	cmpu	r3, r7, r4
    2630:	be430078 	bltid	r3, 120		// 26a8
    2634:	10c6b800 	addk	r6, r6, r23

  ssize_t words_read = read(fd, &(buffer->data[buffer->tail]), 
    2638:	b0000000 	imm	0
    263c:	b9f40f74 	brlid	r15, 3956	// 35b0 <read>
    2640:	60e70004 	muli	r7, r7, 4
      words_to_read * sizeof(uint32_t)) / sizeof(uint32_t);

  buffer->tail = (buffer->tail + words_read) % IO_BUFFER_SIZE;
    2644:	eaf60004 	lwi	r23, r22, 4
  // we know from the freespace check that we can't overwrite the head with
  // only <nwords>.
  words_to_read = min(IO_BUFFER_SIZE - buffer->tail, words_to_read);

  ssize_t words_read = read(fd, &(buffer->data[buffer->tail]), 
      words_to_read * sizeof(uint32_t)) / sizeof(uint32_t);
    2648:	10801800 	addk	r4, r0, r3
    264c:	90830041 	srl	r4, r3
    2650:	90840041 	srl	r4, r4
  buffer->tail = (buffer->tail + words_read) % IO_BUFFER_SIZE;

  if (words_read == 0) {
    return 0;
  } 
  return words_read + cbuffer_read_fd(buffer, fd, nwords - words_read);
    2654:	16649800 	rsubk	r19, r4, r19
  words_to_read = min(IO_BUFFER_SIZE - buffer->tail, words_to_read);

  ssize_t words_read = read(fd, &(buffer->data[buffer->tail]), 
      words_to_read * sizeof(uint32_t)) / sizeof(uint32_t);

  buffer->tail = (buffer->tail + words_read) % IO_BUFFER_SIZE;
    2658:	12e4b800 	addk	r23, r4, r23
    265c:	a6f7003f 	andi	r23, r23, 63

  if (words_read == 0) {
    2660:	be040050 	beqid	r4, 80		// 26b0
    2664:	faf60004 	swi	r23, r22, 4
    return 0;
  return written + cbuffer_write_fd(buffer, fd, nwords - written);
}

ssize_t cbuffer_read_fd(CircularBuffer* buffer, int fd, size_t nwords) {
  if (!nwords) {
    2668:	be130048 	beqid	r19, 72		// 26b0
    266c:	13182000 	addk	r24, r24, r4
    return 0;
  }
  uint32_t freespace = cbuffer_freespace(buffer);
    2670:	b9f4fa1c 	brlid	r15, -1508	// 208c <cbuffer_freespace>
    2674:	10b60000 	addk	r5, r22, r0
  size_t words_to_read = min(nwords, freespace);

  // words available on "tail" until we hit the absolute end of the memory.
  // we know from the freespace check that we can't overwrite the head with
  // only <nwords>.
  words_to_read = min(IO_BUFFER_SIZE - buffer->tail, words_to_read);
    2678:	30c00040 	addik	r6, r0, 64
ssize_t cbuffer_read_fd(CircularBuffer* buffer, int fd, size_t nwords) {
  if (!nwords) {
    return 0;
  }
  uint32_t freespace = cbuffer_freespace(buffer);
  size_t words_to_read = min(nwords, freespace);
    267c:	15131803 	cmpu	r8, r19, r3

  // words available on "tail" until we hit the absolute end of the memory.
  // we know from the freespace check that we can't overwrite the head with
  // only <nwords>.
  words_to_read = min(IO_BUFFER_SIZE - buffer->tail, words_to_read);
    2680:	14973000 	rsubk	r4, r23, r6

  ssize_t words_read = read(fd, &(buffer->data[buffer->tail]), 
    2684:	10b90000 	addk	r5, r25, r0
    2688:	62f70004 	muli	r23, r23, 4
ssize_t cbuffer_read_fd(CircularBuffer* buffer, int fd, size_t nwords) {
  if (!nwords) {
    return 0;
  }
  uint32_t freespace = cbuffer_freespace(buffer);
  size_t words_to_read = min(nwords, freespace);
    268c:	bea8ff9c 	bgeid	r8, -100		// 2628
    2690:	10f30000 	addk	r7, r19, r0
    2694:	10e30000 	addk	r7, r3, r0
  // words available on "tail" until we hit the absolute end of the memory.
  // we know from the freespace check that we can't overwrite the head with
  // only <nwords>.
  words_to_read = min(IO_BUFFER_SIZE - buffer->tail, words_to_read);

  ssize_t words_read = read(fd, &(buffer->data[buffer->tail]), 
    2698:	e8d60000 	lwi	r6, r22, 0
  size_t words_to_read = min(nwords, freespace);

  // words available on "tail" until we hit the absolute end of the memory.
  // we know from the freespace check that we can't overwrite the head with
  // only <nwords>.
  words_to_read = min(IO_BUFFER_SIZE - buffer->tail, words_to_read);
    269c:	14672003 	cmpu	r3, r7, r4
    26a0:	bea3ff98 	bgeid	r3, -104		// 2638
    26a4:	10c6b800 	addk	r6, r6, r23
    26a8:	b810ff90 	brid	-112		// 2638
    26ac:	10e40000 	addk	r7, r4, r0

  if (words_read == 0) {
    return 0;
  } 
  return words_read + cbuffer_read_fd(buffer, fd, nwords - words_read);
}
    26b0:	10780000 	addk	r3, r24, r0
    26b4:	e9e10000 	lwi	r15, r1, 0
    26b8:	ea61001c 	lwi	r19, r1, 28
    26bc:	eac10020 	lwi	r22, r1, 32
    26c0:	eae10024 	lwi	r23, r1, 36
    26c4:	eb010028 	lwi	r24, r1, 40
    26c8:	eb21002c 	lwi	r25, r1, 44
    26cc:	b60f0008 	rtsd	r15, 8
    26d0:	30210030 	addik	r1, r1, 48

000026d4 <ipbus_transaction_payload_size>:
#include <stdlib.h>
#include <string.h>

size_t ipbus_transaction_payload_size(unsigned char words, unsigned char type, unsigned char info_code) {
  size_t datasize = 0;
  if (info_code != IPBUS_INFO_REQUEST && info_code != IPBUS_INFO_SUCCESS) {
    26d4:	be27003c 	bneid	r7, 60		// 2710
    26d8:	3080000f 	addik	r4, r0, 15
    // this is an error, w/ no data returned.
    datasize = 0;
  } else {
    int is_response = (info_code == IPBUS_INFO_SUCCESS);
    switch (type) {
    26dc:	30800005 	addik	r4, r0, 5
  size_t datasize = 0;
  if (info_code != IPBUS_INFO_REQUEST && info_code != IPBUS_INFO_SUCCESS) {
    // this is an error, w/ no data returned.
    datasize = 0;
  } else {
    int is_response = (info_code == IPBUS_INFO_SUCCESS);
    26e0:	10600000 	addk	r3, r0, r0
    switch (type) {
    26e4:	14862003 	cmpu	r4, r6, r4
    26e8:	be440034 	bltid	r4, 52		// 271c
    26ec:	88e71c00 	pcmpeq	r7, r7, r3
    26f0:	60c60004 	muli	r6, r6, 4
    26f4:	b0000000 	imm	0
    26f8:	30c6d740 	addik	r6, r6, -10432
    26fc:	e8660000 	lwi	r3, r6, 0
    2700:	98081800 	bra	r3
        datasize = is_response ? 1 : 3;
        break;
      case IPBUS_RMWSUM:
        // request = addr, addend
        // response = contentes of addr before modify/write
        datasize = is_response ? 1 : 2;
    2704:	a8e70001 	xori	r7, r7, 1
        break;
    }
  }
  return datasize;
}
    2708:	b60f0008 	rtsd	r15, 8
    270c:	30670001 	addik	r3, r7, 1
#include <stdlib.h>
#include <string.h>

size_t ipbus_transaction_payload_size(unsigned char words, unsigned char type, unsigned char info_code) {
  size_t datasize = 0;
  if (info_code != IPBUS_INFO_REQUEST && info_code != IPBUS_INFO_SUCCESS) {
    2710:	8c872400 	pcmpne	r4, r7, r4
    2714:	be04ffc8 	beqid	r4, -56		// 26dc
    2718:	10600000 	addk	r3, r0, r0
        datasize = is_response ? 1 : 2;
        break;
    }
  }
  return datasize;
}
    271c:	b60f0008 	rtsd	r15, 8
    2720:	80000000 	or	r0, r0, r0
        datasize = is_response ? 0 : words + 1;
        break;
      case IPBUS_RMW:
        // request = addr, AND term, OR term
        // response = contentes of addr before modify/write
        datasize = is_response ? 1 : 3;
    2724:	be07fff8 	beqid	r7, -8		// 271c
    2728:	30600003 	addik	r3, r0, 3
    272c:	b60f0008 	rtsd	r15, 8
    2730:	30600001 	addik	r3, r0, 1
        break;
      case IPBUS_WRITE:
      case IPBUS_NIWRITE:
        // request = base addr + n words to write at addr
        // response = nothing
        datasize = is_response ? 0 : words + 1;
    2734:	be27ffe8 	bneid	r7, -24		// 271c
    2738:	10600000 	addk	r3, r0, r0
    273c:	b60f0008 	rtsd	r15, 8
    2740:	30650001 	addik	r3, r5, 1
    switch (type) {
      case IPBUS_READ:
      case IPBUS_NIREAD:
        // request = 1 word with addr to read
        // response = n words read starting from addr
        datasize = is_response ? words : 1;
    2744:	be07ffd8 	beqid	r7, -40		// 271c
    2748:	30600001 	addik	r3, r0, 1
    274c:	b60f0008 	rtsd	r15, 8
    2750:	10650000 	addk	r3, r5, r0

00002754 <ipbus_detect_packet_header>:
int ipbus_detect_packet_header(uint32_t headerword) {
  // check endianess.  
  uint32_t msnibble = headerword & 0xf0000000;
  uint32_t lsnibble = headerword & 0xf0;

  if (lsnibble == 0x20 && msnibble == 0xf0000000) {
    2754:	b000f000 	imm	-4096
    2758:	30600000 	addik	r3, r0, 0
  return datasize;
}

int ipbus_detect_packet_header(uint32_t headerword) {
  // check endianess.  
  uint32_t msnibble = headerword & 0xf0000000;
    275c:	b000f000 	imm	-4096
    2760:	a4850000 	andi	r4, r5, 0
  uint32_t lsnibble = headerword & 0xf0;

  if (lsnibble == 0x20 && msnibble == 0xf0000000) {
    2764:	88641c00 	pcmpeq	r3, r4, r3
    2768:	be030020 	beqid	r3, 32		// 2788
    276c:	a4a500f0 	andi	r5, r5, 240
    2770:	30c00020 	addik	r6, r0, 32	// 20 <_vector_hw_exception>
    2774:	88c53400 	pcmpeq	r6, r5, r6
    2778:	be060010 	beqid	r6, 16		// 2788
    277c:	30600002 	addik	r3, r0, 2
    return 2;
  } else if (lsnibble != 0xf0 || msnibble != 0x20000000) {
    return 0;
  }
  return 1;
}
    2780:	b60f0008 	rtsd	r15, 8
    2784:	80000000 	or	r0, r0, r0
  uint32_t lsnibble = headerword & 0xf0;

  if (lsnibble == 0x20 && msnibble == 0xf0000000) {
    // we need to swap the endianness
    return 2;
  } else if (lsnibble != 0xf0 || msnibble != 0x20000000) {
    2788:	306000f0 	addik	r3, r0, 240
    278c:	8ca51c00 	pcmpne	r5, r5, r3
    2790:	b0002000 	imm	8192
    2794:	30600000 	addik	r3, r0, 0
    2798:	8c641c00 	pcmpne	r3, r4, r3
    279c:	80632800 	or	r3, r3, r5
    return 0;
  }
  return 1;
}
    27a0:	b60f0008 	rtsd	r15, 8
    27a4:	a8630001 	xori	r3, r3, 1

000027a8 <ipbus_decode_transaction_header>:
  LOG_DEBUG("Partial transaction size: %"PRIx32, cbuffer_size(input_buffer));
  return IPBUS_ISTREAM_PARTIAL_TRANS;
}

// initialize IPbus transaction from a stream
ipbus_transaction_t ipbus_decode_transaction_header(const CircularBuffer* buf, int swapbytes) {
    27a8:	3021ffd0 	addik	r1, r1, -48
    27ac:	fa61001c 	swi	r19, r1, 28
    27b0:	12650000 	addk	r19, r5, r0
  ipbus_transaction_t output;

  uint32_t headerword = cbuffer_value_at_net(buf, 0);
    27b4:	10a60000 	addk	r5, r6, r0
  LOG_DEBUG("Partial transaction size: %"PRIx32, cbuffer_size(input_buffer));
  return IPBUS_ISTREAM_PARTIAL_TRANS;
}

// initialize IPbus transaction from a stream
ipbus_transaction_t ipbus_decode_transaction_header(const CircularBuffer* buf, int swapbytes) {
    27b8:	fae10024 	swi	r23, r1, 36
    27bc:	12e70000 	addk	r23, r7, r0
  ipbus_transaction_t output;

  uint32_t headerword = cbuffer_value_at_net(buf, 0);
    27c0:	10c00000 	addk	r6, r0, r0
  LOG_DEBUG("Partial transaction size: %"PRIx32, cbuffer_size(input_buffer));
  return IPBUS_ISTREAM_PARTIAL_TRANS;
}

// initialize IPbus transaction from a stream
ipbus_transaction_t ipbus_decode_transaction_header(const CircularBuffer* buf, int swapbytes) {
    27c4:	fac10020 	swi	r22, r1, 32
    27c8:	f9e10000 	swi	r15, r1, 0
    27cc:	fb010028 	swi	r24, r1, 40
  ipbus_transaction_t output;

  uint32_t headerword = cbuffer_value_at_net(buf, 0);
    27d0:	b000ffff 	imm	-1
    27d4:	b9f4f7e4 	brlid	r15, -2076	// 1fb8 <cbuffer_value_at_net>
    27d8:	fb21002c 	swi	r25, r1, 44

  if (swapbytes)
    27dc:	be1700c0 	beqid	r23, 192		// 289c
    27e0:	12c30000 	addk	r22, r3, r0
    headerword = __bswap_32(headerword);
    27e4:	b0000000 	imm	0
    27e8:	a483ffff 	andi	r4, r3, -1
    27ec:	60c40100 	muli	r6, r4, 256
    27f0:	1060b000 	addk	r3, r0, r22
    27f4:	90760041 	srl	r3, r22
    27f8:	90630041 	srl	r3, r3
    27fc:	90630041 	srl	r3, r3
    2800:	90630041 	srl	r3, r3
    2804:	90630041 	srl	r3, r3
    2808:	90630041 	srl	r3, r3
    280c:	90630041 	srl	r3, r3
    2810:	90630041 	srl	r3, r3
    2814:	90630041 	srl	r3, r3
    2818:	90630041 	srl	r3, r3
    281c:	90630041 	srl	r3, r3
    2820:	90630041 	srl	r3, r3
    2824:	90630041 	srl	r3, r3
    2828:	90630041 	srl	r3, r3
    282c:	90630041 	srl	r3, r3
    2830:	90630041 	srl	r3, r3
    2834:	62c30100 	muli	r22, r3, 256
    2838:	10a02000 	addk	r5, r0, r4
    283c:	90a40041 	srl	r5, r4
    2840:	90a50041 	srl	r5, r5
    2844:	90a50041 	srl	r5, r5
    2848:	90a50041 	srl	r5, r5
    284c:	90a50041 	srl	r5, r5
    2850:	90a50041 	srl	r5, r5
    2854:	90a50041 	srl	r5, r5
    2858:	90a50041 	srl	r5, r5
    285c:	b0000000 	imm	0
    2860:	a6d6ffff 	andi	r22, r22, -1
    2864:	80a62800 	or	r5, r6, r5
    2868:	10801800 	addk	r4, r0, r3
    286c:	90830041 	srl	r4, r3
    2870:	90840041 	srl	r4, r4
    2874:	90840041 	srl	r4, r4
    2878:	90840041 	srl	r4, r4
    287c:	90840041 	srl	r4, r4
    2880:	90840041 	srl	r4, r4
    2884:	90840041 	srl	r4, r4
    2888:	90840041 	srl	r4, r4
    288c:	b0000001 	imm	1
    2890:	60650000 	muli	r3, r5, 0
    2894:	82d62000 	or	r22, r22, r4
    2898:	82d61800 	or	r22, r22, r3

  output.info = headerword & 0x0f;
    289c:	a6f6000f 	andi	r23, r22, 15
  output.type = (headerword & 0xf0) >> 4;
    28a0:	a49600f0 	andi	r4, r22, 240
  output.words = (headerword & 0xff00) >> 8;
    28a4:	b0000000 	imm	0
    28a8:	a476ff00 	andi	r3, r22, -256

  if (swapbytes)
    headerword = __bswap_32(headerword);

  output.info = headerword & 0x0f;
  output.type = (headerword & 0xf0) >> 4;
    28ac:	13002000 	addk	r24, r0, r4
    28b0:	93040041 	srl	r24, r4
    28b4:	93180041 	srl	r24, r24
    28b8:	93180041 	srl	r24, r24
    28bc:	93180041 	srl	r24, r24
  output.words = (headerword & 0xff00) >> 8;
    28c0:	13201800 	addk	r25, r0, r3
    28c4:	93230041 	srl	r25, r3
    28c8:	93390041 	srl	r25, r25
    28cc:	93390041 	srl	r25, r25
    28d0:	93390041 	srl	r25, r25
    28d4:	93390041 	srl	r25, r25
    28d8:	93390041 	srl	r25, r25
    28dc:	93390041 	srl	r25, r25
    28e0:	93390041 	srl	r25, r25
  output.id = (headerword & 0x0fff0000) >> 16;

  // determine payload size
  output.data.size = ipbus_transaction_payload_size(
    28e4:	10d80000 	addk	r6, r24, r0
    28e8:	10b90000 	addk	r5, r25, r0
    headerword = __bswap_32(headerword);

  output.info = headerword & 0x0f;
  output.type = (headerword & 0xf0) >> 4;
  output.words = (headerword & 0xff00) >> 8;
  output.id = (headerword & 0x0fff0000) >> 16;
    28ec:	b0000fff 	imm	4095
    28f0:	a6d60000 	andi	r22, r22, 0

  // determine payload size
  output.data.size = ipbus_transaction_payload_size(
    28f4:	b9f4fde0 	brlid	r15, -544	// 26d4 <ipbus_transaction_payload_size>
    28f8:	10f70000 	addk	r7, r23, r0
    28fc:	f0730008 	sbi	r3, r19, 8
      output.words, output.type, output.info);

  output.data.words = NULL;

  return output;
    2900:	f3330002 	sbi	r25, r19, 2
    2904:	f3130003 	sbi	r24, r19, 3
    2908:	f2f30004 	sbi	r23, r19, 4
    290c:	f813000c 	swi	r0, r19, 12
    headerword = __bswap_32(headerword);

  output.info = headerword & 0x0f;
  output.type = (headerword & 0xf0) >> 4;
  output.words = (headerword & 0xff00) >> 8;
  output.id = (headerword & 0x0fff0000) >> 16;
    2910:	1080b000 	addk	r4, r0, r22
    2914:	90960041 	srl	r4, r22
    2918:	90840041 	srl	r4, r4
    291c:	90840041 	srl	r4, r4
    2920:	90840041 	srl	r4, r4
    2924:	90840041 	srl	r4, r4
    2928:	90840041 	srl	r4, r4
    292c:	90840041 	srl	r4, r4
    2930:	90840041 	srl	r4, r4
    2934:	90840041 	srl	r4, r4
    2938:	90840041 	srl	r4, r4
    293c:	90840041 	srl	r4, r4
    2940:	90840041 	srl	r4, r4
    2944:	90840041 	srl	r4, r4
    2948:	90840041 	srl	r4, r4
    294c:	90840041 	srl	r4, r4
    2950:	90840041 	srl	r4, r4
    2954:	f4930000 	shi	r4, r19, 0
      output.words, output.type, output.info);

  output.data.words = NULL;

  return output;
}
    2958:	10730000 	addk	r3, r19, r0
    295c:	e9e10000 	lwi	r15, r1, 0
    2960:	ea61001c 	lwi	r19, r1, 28
    2964:	eac10020 	lwi	r22, r1, 32
    2968:	eae10024 	lwi	r23, r1, 36
    296c:	eb010028 	lwi	r24, r1, 40
    2970:	eb21002c 	lwi	r25, r1, 44
    2974:	b60f0008 	rtsd	r15, 8
    2978:	30210030 	addik	r1, r1, 48

0000297c <ipbus_stream_state>:
    return 0;
  }
  return 1;
}

int ipbus_stream_state(const CircularBuffer* input_buffer, int* swapbytes) {
    297c:	3021ffcc 	addik	r1, r1, -52
    2980:	fa61002c 	swi	r19, r1, 44
    2984:	fac10030 	swi	r22, r1, 48
    2988:	f9e10000 	swi	r15, r1, 0
    298c:	12650000 	addk	r19, r5, r0
  if (!cbuffer_size(input_buffer)) {
    2990:	b000ffff 	imm	-1
    2994:	b9f4f584 	brlid	r15, -2684	// 1f18 <cbuffer_size>
    2998:	12c60000 	addk	r22, r6, r0
    299c:	be23001c 	bneid	r3, 28		// 29b8
    29a0:	10b30000 	addk	r5, r19, r0
    return IPBUS_ISTREAM_FULL_TRANS;
  }

  LOG_DEBUG("Partial transaction size: %"PRIx32, cbuffer_size(input_buffer));
  return IPBUS_ISTREAM_PARTIAL_TRANS;
}
    29a4:	e9e10000 	lwi	r15, r1, 0
    29a8:	ea61002c 	lwi	r19, r1, 44
    29ac:	eac10030 	lwi	r22, r1, 48
    29b0:	b60f0008 	rtsd	r15, 8
    29b4:	30210034 	addik	r1, r1, 52

int ipbus_stream_state(const CircularBuffer* input_buffer, int* swapbytes) {
  if (!cbuffer_size(input_buffer)) {
    return IPBUS_ISTREAM_EMPTY;
  }
  uint32_t firstword = cbuffer_value_at_net(input_buffer, 0);
    29b8:	b000ffff 	imm	-1
    29bc:	b9f4f5fc 	brlid	r15, -2564	// 1fb8 <cbuffer_value_at_net>
    29c0:	10c00000 	addk	r6, r0, r0
int ipbus_detect_packet_header(uint32_t headerword) {
  // check endianess.  
  uint32_t msnibble = headerword & 0xf0000000;
  uint32_t lsnibble = headerword & 0xf0;

  if (lsnibble == 0x20 && msnibble == 0xf0000000) {
    29c4:	b000f000 	imm	-4096
    29c8:	30a00000 	addik	r5, r0, 0
  return datasize;
}

int ipbus_detect_packet_header(uint32_t headerword) {
  // check endianess.  
  uint32_t msnibble = headerword & 0xf0000000;
    29cc:	b000f000 	imm	-4096
    29d0:	a4830000 	andi	r4, r3, 0
  uint32_t lsnibble = headerword & 0xf0;

  if (lsnibble == 0x20 && msnibble == 0xf0000000) {
    29d4:	88a42c00 	pcmpeq	r5, r4, r5
    29d8:	be050018 	beqid	r5, 24		// 29f0
    29dc:	a4c300f0 	andi	r6, r3, 240
    29e0:	30a00020 	addik	r5, r0, 32	// 20 <_vector_hw_exception>
    29e4:	88a62c00 	pcmpeq	r5, r6, r5
    29e8:	be2500dc 	bneid	r5, 220		// 2ac4
    29ec:	30600002 	addik	r3, r0, 2
    // we need to swap the endianness
    return 2;
  } else if (lsnibble != 0xf0 || msnibble != 0x20000000) {
    29f0:	b0002000 	imm	8192
    29f4:	30600000 	addik	r3, r0, 0
    29f8:	8c841c00 	pcmpne	r4, r4, r3
    29fc:	bc240010 	bnei	r4, 16		// 2a0c
    2a00:	306000f0 	addik	r3, r0, 240
    2a04:	8cc61c00 	pcmpne	r6, r6, r3
    2a08:	bc0600b8 	beqi	r6, 184		// 2ac0
  }
  // Double check if it is reasonable transaction packet
  // header.  We should never have the middle of a transaction
  // at the header of the buffer - we always wait for a 
  // transaction to be in-buffer before reading it out.
  ipbus_transaction_t transaction = ipbus_decode_transaction_header(
    2a0c:	10d30000 	addk	r6, r19, r0
    2a10:	e8f60000 	lwi	r7, r22, 0
    2a14:	b9f4fd94 	brlid	r15, -620	// 27a8 <ipbus_decode_transaction_header>
    2a18:	30a1001c 	addik	r5, r1, 28
      input_buffer, *swapbytes);

  if (cbuffer_size(input_buffer) >= (transaction.data.size + 1)) {
    2a1c:	b000ffff 	imm	-1
    2a20:	b9f4f4f8 	brlid	r15, -2824	// 1f18 <cbuffer_size>
    2a24:	10b30000 	addk	r5, r19, r0
    2a28:	e0810024 	lbui	r4, r1, 36
    2a2c:	30840001 	addik	r4, r4, 1
    2a30:	14841803 	cmpu	r4, r4, r3
    return IPBUS_ISTREAM_FULL_TRANS;
    2a34:	10602000 	addk	r3, r0, r4
    2a38:	90640041 	srl	r3, r4
    2a3c:	90630041 	srl	r3, r3
    2a40:	90630041 	srl	r3, r3
    2a44:	90630041 	srl	r3, r3
    2a48:	90630041 	srl	r3, r3
    2a4c:	90630041 	srl	r3, r3
    2a50:	90630041 	srl	r3, r3
    2a54:	90630041 	srl	r3, r3
    2a58:	90630041 	srl	r3, r3
    2a5c:	90630041 	srl	r3, r3
    2a60:	90630041 	srl	r3, r3
    2a64:	90630041 	srl	r3, r3
    2a68:	90630041 	srl	r3, r3
    2a6c:	90630041 	srl	r3, r3
    2a70:	90630041 	srl	r3, r3
    2a74:	90630041 	srl	r3, r3
    2a78:	90630041 	srl	r3, r3
    2a7c:	90630041 	srl	r3, r3
    2a80:	90630041 	srl	r3, r3
    2a84:	90630041 	srl	r3, r3
    2a88:	90630041 	srl	r3, r3
    2a8c:	90630041 	srl	r3, r3
    2a90:	90630041 	srl	r3, r3
    2a94:	90630041 	srl	r3, r3
    2a98:	90630041 	srl	r3, r3
    2a9c:	90630041 	srl	r3, r3
    2aa0:	90630041 	srl	r3, r3
    2aa4:	90630041 	srl	r3, r3
    2aa8:	90630041 	srl	r3, r3
    2aac:	90630041 	srl	r3, r3
    2ab0:	90630041 	srl	r3, r3
    2ab4:	30800004 	addik	r4, r0, 4
    2ab8:	b810feec 	brid	-276		// 29a4
    2abc:	14632000 	rsubk	r3, r3, r4
    // we need to swap the endianness
    return 2;
  } else if (lsnibble != 0xf0 || msnibble != 0x20000000) {
    return 0;
  }
  return 1;
    2ac0:	30600001 	addik	r3, r0, 1
  LOG_DEBUG("Got a word: %"PRIx32, firstword);
  // check if this is a packet header
  int is_pkt = ipbus_detect_packet_header(firstword);
  if (is_pkt) {
    // check if we want to update an endianness flag
    if (swapbytes != NULL) {
    2ac4:	be16fee0 	beqid	r22, -288		// 29a4
    2ac8:	a8830001 	xori	r4, r3, 1
      if (is_pkt == IPBUS_ISTREAM_PACKET)
    2acc:	bc040024 	beqi	r4, 36		// 2af0
        *swapbytes = 0;
      if (is_pkt == IPBUS_ISTREAM_PACKET_SWP_ORD)
        *swapbytes = 1;
    2ad0:	30600001 	addik	r3, r0, 1
    2ad4:	f8760000 	swi	r3, r22, 0
    return IPBUS_ISTREAM_FULL_TRANS;
  }

  LOG_DEBUG("Partial transaction size: %"PRIx32, cbuffer_size(input_buffer));
  return IPBUS_ISTREAM_PARTIAL_TRANS;
}
    2ad8:	e9e10000 	lwi	r15, r1, 0
    2adc:	ea61002c 	lwi	r19, r1, 44
    2ae0:	eac10030 	lwi	r22, r1, 48
    // check if we want to update an endianness flag
    if (swapbytes != NULL) {
      if (is_pkt == IPBUS_ISTREAM_PACKET)
        *swapbytes = 0;
      if (is_pkt == IPBUS_ISTREAM_PACKET_SWP_ORD)
        *swapbytes = 1;
    2ae4:	30600002 	addik	r3, r0, 2
    return IPBUS_ISTREAM_FULL_TRANS;
  }

  LOG_DEBUG("Partial transaction size: %"PRIx32, cbuffer_size(input_buffer));
  return IPBUS_ISTREAM_PARTIAL_TRANS;
}
    2ae8:	b60f0008 	rtsd	r15, 8
    2aec:	30210034 	addik	r1, r1, 52
  int is_pkt = ipbus_detect_packet_header(firstword);
  if (is_pkt) {
    // check if we want to update an endianness flag
    if (swapbytes != NULL) {
      if (is_pkt == IPBUS_ISTREAM_PACKET)
        *swapbytes = 0;
    2af0:	b810feb4 	brid	-332		// 29a4
    2af4:	f8960000 	swi	r4, r22, 0

00002af8 <ipbus_decode_transaction>:

  return output;
}

// read an IPbus transaction from a stream
ipbus_transaction_t ipbus_decode_transaction(const CircularBuffer *buf, int swapbytes) {
    2af8:	3021ffac 	addik	r1, r1, -84
    2afc:	fbc10050 	swi	r30, r1, 80
    2b00:	13c50000 	addk	r30, r5, r0
  ipbus_transaction_t output = ipbus_decode_transaction_header(buf, swapbytes);
    2b04:	30a1001c 	addik	r5, r1, 28

  return output;
}

// read an IPbus transaction from a stream
ipbus_transaction_t ipbus_decode_transaction(const CircularBuffer *buf, int swapbytes) {
    2b08:	f9e10000 	swi	r15, r1, 0
    2b0c:	fac10030 	swi	r22, r1, 48
    2b10:	fb010038 	swi	r24, r1, 56
    2b14:	fb810048 	swi	r28, r1, 72
    2b18:	fba1004c 	swi	r29, r1, 76
    2b1c:	12c60000 	addk	r22, r6, r0
    2b20:	13a70000 	addk	r29, r7, r0
    2b24:	fa61002c 	swi	r19, r1, 44
    2b28:	fae10034 	swi	r23, r1, 52
    2b2c:	fb21003c 	swi	r25, r1, 60
    2b30:	fb410040 	swi	r26, r1, 64
  ipbus_transaction_t output = ipbus_decode_transaction_header(buf, swapbytes);
    2b34:	b9f4fc74 	brlid	r15, -908	// 27a8 <ipbus_decode_transaction_header>
    2b38:	fb610044 	swi	r27, r1, 68
    2b3c:	e3010024 	lbui	r24, r1, 36

  size_t words_read = 1;

  output.data.words = malloc(output.data.size * sizeof(uint32_t));
    2b40:	b0000000 	imm	0
    2b44:	b9f423f4 	brlid	r15, 9204	// 4f38 <malloc>
    2b48:	60b80004 	muli	r5, r24, 4

  for (unsigned int i = 0; i < output.data.size; ++i) {
    2b4c:	be180204 	beqid	r24, 516		// 2d50
    2b50:	13830000 	addk	r28, r3, r0
    2b54:	12e00000 	addk	r23, r0, r0
    2b58:	32600001 	addik	r19, r0, 1
    uint32_t dataword = network_to_host(cbuffer_value_at(buf, words_read)); 
    2b5c:	10d30000 	addk	r6, r19, r0
    2b60:	b000ffff 	imm	-1
    2b64:	b9f4f438 	brlid	r15, -3016	// 1f9c <cbuffer_value_at>
    2b68:	10b60000 	addk	r5, r22, r0
    2b6c:	10d30000 	addk	r6, r19, r0
    2b70:	10b60000 	addk	r5, r22, r0
    2b74:	b000ffff 	imm	-1
    2b78:	b9f4f424 	brlid	r15, -3036	// 1f9c <cbuffer_value_at>
    2b7c:	13630000 	addk	r27, r3, r0
    2b80:	10d30000 	addk	r6, r19, r0
    2b84:	10b60000 	addk	r5, r22, r0
    2b88:	b000ffff 	imm	-1
    2b8c:	b9f4f410 	brlid	r15, -3056	// 1f9c <cbuffer_value_at>
    2b90:	13430000 	addk	r26, r3, r0
    2b94:	10d30000 	addk	r6, r19, r0
    2b98:	10b60000 	addk	r5, r22, r0
    2b9c:	13230000 	addk	r25, r3, r0
    2ba0:	b000ffff 	imm	-1
    2ba4:	b9f4f3f8 	brlid	r15, -3080	// 1f9c <cbuffer_value_at>
    2ba8:	32730001 	addik	r19, r19, 1
    2bac:	b0000000 	imm	0
    2bb0:	a4daffff 	andi	r6, r26, -1
    2bb4:	611b0100 	muli	r8, r27, 256
    2bb8:	11203000 	addk	r9, r0, r6
    2bbc:	91260041 	srl	r9, r6
    2bc0:	91290041 	srl	r9, r9
    2bc4:	91290041 	srl	r9, r9
    2bc8:	91290041 	srl	r9, r9
    2bcc:	91290041 	srl	r9, r9
    2bd0:	91290041 	srl	r9, r9
    2bd4:	91290041 	srl	r9, r9
    2bd8:	91290041 	srl	r9, r9
    2bdc:	1080c800 	addk	r4, r0, r25
    2be0:	90990041 	srl	r4, r25
    2be4:	90840041 	srl	r4, r4
    2be8:	90840041 	srl	r4, r4
    2bec:	90840041 	srl	r4, r4
    2bf0:	90840041 	srl	r4, r4
    2bf4:	90840041 	srl	r4, r4
    2bf8:	90840041 	srl	r4, r4
    2bfc:	90840041 	srl	r4, r4
    2c00:	81084800 	or	r8, r8, r9
    2c04:	b0000000 	imm	0
    2c08:	a484ff00 	andi	r4, r4, -256
    2c0c:	10c01800 	addk	r6, r0, r3
    2c10:	90c30041 	srl	r6, r3
    2c14:	90c60041 	srl	r6, r6
    2c18:	90c60041 	srl	r6, r6
    2c1c:	90c60041 	srl	r6, r6
    2c20:	90c60041 	srl	r6, r6
    2c24:	90c60041 	srl	r6, r6
    2c28:	90c60041 	srl	r6, r6
    2c2c:	90c60041 	srl	r6, r6
    2c30:	90c60041 	srl	r6, r6
    2c34:	90c60041 	srl	r6, r6
    2c38:	90c60041 	srl	r6, r6
    2c3c:	90c60041 	srl	r6, r6
    2c40:	90c60041 	srl	r6, r6
    2c44:	90c60041 	srl	r6, r6
    2c48:	90c60041 	srl	r6, r6
    2c4c:	90c60041 	srl	r6, r6
    2c50:	90c60041 	srl	r6, r6
    2c54:	90c60041 	srl	r6, r6
    2c58:	90c60041 	srl	r6, r6
    2c5c:	90c60041 	srl	r6, r6
    2c60:	90c60041 	srl	r6, r6
    2c64:	90c60041 	srl	r6, r6
    2c68:	90c60041 	srl	r6, r6
    2c6c:	90c60041 	srl	r6, r6
    2c70:	b0000001 	imm	1
    2c74:	61080000 	muli	r8, r8, 0
    2c78:	80843000 	or	r4, r4, r6
    2c7c:	80844000 	or	r4, r4, r8
    words_read += 1;
    if (swapbytes) {
      dataword = __bswap_32(dataword);
    2c80:	b0000000 	imm	0
    2c84:	a504ffff 	andi	r8, r4, -1
    2c88:	10c02000 	addk	r6, r0, r4
    2c8c:	90c40041 	srl	r6, r4
    2c90:	90c60041 	srl	r6, r6
    2c94:	90c60041 	srl	r6, r6
    2c98:	90c60041 	srl	r6, r6
    2c9c:	90c60041 	srl	r6, r6
    2ca0:	90c60041 	srl	r6, r6
    2ca4:	90c60041 	srl	r6, r6
    2ca8:	90c60041 	srl	r6, r6
    2cac:	90c60041 	srl	r6, r6
    2cb0:	90c60041 	srl	r6, r6
    2cb4:	90c60041 	srl	r6, r6
    2cb8:	90c60041 	srl	r6, r6
    2cbc:	90c60041 	srl	r6, r6
    2cc0:	90c60041 	srl	r6, r6
    2cc4:	90c60041 	srl	r6, r6
    2cc8:	90c60041 	srl	r6, r6
    2ccc:	63280100 	muli	r25, r8, 256
    2cd0:	61660100 	muli	r11, r6, 256
    2cd4:	11804000 	addk	r12, r0, r8
    2cd8:	91880041 	srl	r12, r8
    2cdc:	918c0041 	srl	r12, r12
    2ce0:	918c0041 	srl	r12, r12
    2ce4:	918c0041 	srl	r12, r12
    2ce8:	918c0041 	srl	r12, r12
    2cec:	918c0041 	srl	r12, r12
    2cf0:	918c0041 	srl	r12, r12
    2cf4:	918c0041 	srl	r12, r12
    }
    output.data.words[i] = dataword;
    2cf8:	61570004 	muli	r10, r23, 4

  for (unsigned int i = 0; i < output.data.size; ++i) {
    uint32_t dataword = network_to_host(cbuffer_value_at(buf, words_read)); 
    words_read += 1;
    if (swapbytes) {
      dataword = __bswap_32(dataword);
    2cfc:	b0000000 	imm	0
    2d00:	a56bffff 	andi	r11, r11, -1

  size_t words_read = 1;

  output.data.words = malloc(output.data.size * sizeof(uint32_t));

  for (unsigned int i = 0; i < output.data.size; ++i) {
    2d04:	32f70001 	addik	r23, r23, 1
    uint32_t dataword = network_to_host(cbuffer_value_at(buf, words_read)); 
    words_read += 1;
    if (swapbytes) {
      dataword = __bswap_32(dataword);
    2d08:	81996000 	or	r12, r25, r12
    2d0c:	11003000 	addk	r8, r0, r6
    2d10:	91060041 	srl	r8, r6
    2d14:	91080041 	srl	r8, r8
    2d18:	91080041 	srl	r8, r8
    2d1c:	91080041 	srl	r8, r8
    2d20:	91080041 	srl	r8, r8
    2d24:	91080041 	srl	r8, r8
    2d28:	91080041 	srl	r8, r8
    2d2c:	91080041 	srl	r8, r8

  size_t words_read = 1;

  output.data.words = malloc(output.data.size * sizeof(uint32_t));

  for (unsigned int i = 0; i < output.data.size; ++i) {
    2d30:	1538b803 	cmpu	r9, r24, r23
    uint32_t dataword = network_to_host(cbuffer_value_at(buf, words_read)); 
    words_read += 1;
    if (swapbytes) {
      dataword = __bswap_32(dataword);
    2d34:	b0000001 	imm	1
    2d38:	618c0000 	muli	r12, r12, 0
  output.data.words = malloc(output.data.size * sizeof(uint32_t));

  for (unsigned int i = 0; i < output.data.size; ++i) {
    uint32_t dataword = network_to_host(cbuffer_value_at(buf, words_read)); 
    words_read += 1;
    if (swapbytes) {
    2d3c:	be1d000c 	beqid	r29, 12		// 2d48
    2d40:	810b4000 	or	r8, r11, r8
      dataword = __bswap_32(dataword);
    2d44:	80886000 	or	r4, r8, r12

  size_t words_read = 1;

  output.data.words = malloc(output.data.size * sizeof(uint32_t));

  for (unsigned int i = 0; i < output.data.size; ++i) {
    2d48:	be49fe14 	bltid	r9, -492		// 2b5c
    2d4c:	d88ae000 	sw	r4, r10, r28
    if (swapbytes) {
      dataword = __bswap_32(dataword);
    }
    output.data.words[i] = dataword;
  }
  return output;
    2d50:	e861001c 	lwi	r3, r1, 28
    2d54:	fb9e000c 	swi	r28, r30, 12
    2d58:	f87e0000 	swi	r3, r30, 0
    2d5c:	e8610024 	lwi	r3, r1, 36
    2d60:	f87e0008 	swi	r3, r30, 8
    2d64:	e8610020 	lwi	r3, r1, 32
    2d68:	f31e0008 	sbi	r24, r30, 8
    2d6c:	f87e0004 	swi	r3, r30, 4
}
    2d70:	e9e10000 	lwi	r15, r1, 0
    2d74:	107e0000 	addk	r3, r30, r0
    2d78:	ea61002c 	lwi	r19, r1, 44
    2d7c:	eac10030 	lwi	r22, r1, 48
    2d80:	eae10034 	lwi	r23, r1, 52
    2d84:	eb010038 	lwi	r24, r1, 56
    2d88:	eb21003c 	lwi	r25, r1, 60
    2d8c:	eb410040 	lwi	r26, r1, 64
    2d90:	eb610044 	lwi	r27, r1, 68
    2d94:	eb810048 	lwi	r28, r1, 72
    2d98:	eba1004c 	lwi	r29, r1, 76
    2d9c:	ebc10050 	lwi	r30, r1, 80
    2da0:	b60f0008 	rtsd	r15, 8
    2da4:	30210054 	addik	r1, r1, 84

00002da8 <ipbus_transaction_endocded_size>:

size_t ipbus_transaction_endocded_size(const ipbus_transaction_t* trans) {
    2da8:	10650000 	addk	r3, r5, r0
    2dac:	3021ffe4 	addik	r1, r1, -28
    2db0:	f9e10000 	swi	r15, r1, 0
  return (1 + ipbus_transaction_payload_size(trans->words, trans->type, trans->info)); 
    2db4:	e0a50002 	lbui	r5, r5, 2
    2db8:	e0c30003 	lbui	r6, r3, 3
    2dbc:	b9f4f918 	brlid	r15, -1768	// 26d4 <ipbus_transaction_payload_size>
    2dc0:	e0e30004 	lbui	r7, r3, 4
}
    2dc4:	e9e10000 	lwi	r15, r1, 0
    2dc8:	30630001 	addik	r3, r3, 1
    2dcc:	b60f0008 	rtsd	r15, 8
    2dd0:	3021001c 	addik	r1, r1, 28

00002dd4 <ipbus_transaction_header>:
    uint32_t words,
    uint32_t type_id,
    uint32_t info_code) {
  uint32_t output = 
      (protocol << 28) |
      ((transaction_id & 0xfff) << 16) |
    2dd4:	a4c60fff 	andi	r6, r6, 4095
    2dd8:	b0000001 	imm	1
    2ddc:	60660000 	muli	r3, r6, 0
    uint32_t transaction_id,
    uint32_t words,
    uint32_t type_id,
    uint32_t info_code) {
  uint32_t output = 
      (protocol << 28) |
    2de0:	b0001000 	imm	4096
    2de4:	60a50000 	muli	r5, r5, 0
      ((transaction_id & 0xfff) << 16) |
      ((words & 0xff) << 8) |
    2de8:	60e70100 	muli	r7, r7, 256
    uint32_t transaction_id,
    uint32_t words,
    uint32_t type_id,
    uint32_t info_code) {
  uint32_t output = 
      (protocol << 28) |
    2dec:	80632800 	or	r3, r3, r5
      ((transaction_id & 0xfff) << 16) |
      ((words & 0xff) << 8) |
    2df0:	b0000000 	imm	0
    2df4:	a4e7ffff 	andi	r7, r7, -1
      ((type_id & 0xf) << 4) |
    2df8:	61080010 	muli	r8, r8, 16
    uint32_t words,
    uint32_t type_id,
    uint32_t info_code) {
  uint32_t output = 
      (protocol << 28) |
      ((transaction_id & 0xfff) << 16) |
    2dfc:	80633800 	or	r3, r3, r7
      ((words & 0xff) << 8) |
      ((type_id & 0xf) << 4) |
    2e00:	a50800ff 	andi	r8, r8, 255
    uint32_t type_id,
    uint32_t info_code) {
  uint32_t output = 
      (protocol << 28) |
      ((transaction_id & 0xfff) << 16) |
      ((words & 0xff) << 8) |
    2e04:	80634000 	or	r3, r3, r8
      ((type_id & 0xf) << 4) |
      (info_code & 0x0f);
    2e08:	a529000f 	andi	r9, r9, 15
  return output;
}
    2e0c:	b60f0008 	rtsd	r15, 8
    2e10:	80634800 	or	r3, r3, r9

00002e14 <ipbus_encode_transaction>:

void ipbus_encode_transaction(CircularBuffer* into, const ipbus_transaction_t* transaction, int swapbytes) {
    2e14:	3021ffd4 	addik	r1, r1, -44
    2e18:	fa61001c 	swi	r19, r1, 28
    2e1c:	12660000 	addk	r19, r6, r0
    2e20:	fae10024 	swi	r23, r1, 36
    2e24:	fb010028 	swi	r24, r1, 40
    2e28:	f9e10000 	swi	r15, r1, 0
    2e2c:	fac10020 	swi	r22, r1, 32
    2e30:	12e50000 	addk	r23, r5, r0
  uint32_t headerword = ipbus_transaction_header(
    2e34:	e0c60004 	lbui	r6, r6, 4
    2e38:	e4b30000 	lhui	r5, r19, 0
    2e3c:	e0930002 	lbui	r4, r19, 2
    2e40:	e0730003 	lbui	r3, r19, 3
  uint32_t output = 
      (protocol << 28) |
      ((transaction_id & 0xfff) << 16) |
      ((words & 0xff) << 8) |
      ((type_id & 0xf) << 4) |
      (info_code & 0x0f);
    2e44:	a4c6000f 	andi	r6, r6, 15
    uint32_t words,
    uint32_t type_id,
    uint32_t info_code) {
  uint32_t output = 
      (protocol << 28) |
      ((transaction_id & 0xfff) << 16) |
    2e48:	a4a50fff 	andi	r5, r5, 4095
    uint32_t transaction_id,
    uint32_t words,
    uint32_t type_id,
    uint32_t info_code) {
  uint32_t output = 
      (protocol << 28) |
    2e4c:	b0002000 	imm	8192
    2e50:	a0c60000 	ori	r6, r6, 0
      ((transaction_id & 0xfff) << 16) |
    2e54:	b0000001 	imm	1
    2e58:	60a50000 	muli	r5, r5, 0
    2e5c:	80c62800 	or	r6, r6, r5
      ((words & 0xff) << 8) |
    2e60:	60840100 	muli	r4, r4, 256
      ((type_id & 0xf) << 4) |
    2e64:	60630010 	muli	r3, r3, 16
    uint32_t type_id,
    uint32_t info_code) {
  uint32_t output = 
      (protocol << 28) |
      ((transaction_id & 0xfff) << 16) |
      ((words & 0xff) << 8) |
    2e68:	80c62000 	or	r6, r6, r4
      ((type_id & 0xf) << 4) |
    2e6c:	a46300ff 	andi	r3, r3, 255
      (info_code & 0x0f);
  return output;
}

void ipbus_encode_transaction(CircularBuffer* into, const ipbus_transaction_t* transaction, int swapbytes) {
    2e70:	13070000 	addk	r24, r7, r0
  uint32_t headerword = ipbus_transaction_header(
      2, transaction->id, transaction->words, transaction->type, transaction->info);
  if (swapbytes) {
    2e74:	be0700c0 	beqid	r7, 192		// 2f34
    2e78:	80c61800 	or	r6, r6, r3
    headerword = __bswap_32(headerword);
    2e7c:	b0000000 	imm	0
    2e80:	a486ffff 	andi	r4, r6, -1
    2e84:	10603000 	addk	r3, r0, r6
    2e88:	90660041 	srl	r3, r6
    2e8c:	90630041 	srl	r3, r3
    2e90:	90630041 	srl	r3, r3
    2e94:	90630041 	srl	r3, r3
    2e98:	90630041 	srl	r3, r3
    2e9c:	90630041 	srl	r3, r3
    2ea0:	90630041 	srl	r3, r3
    2ea4:	90630041 	srl	r3, r3
    2ea8:	90630041 	srl	r3, r3
    2eac:	90630041 	srl	r3, r3
    2eb0:	90630041 	srl	r3, r3
    2eb4:	90630041 	srl	r3, r3
    2eb8:	90630041 	srl	r3, r3
    2ebc:	90630041 	srl	r3, r3
    2ec0:	90630041 	srl	r3, r3
    2ec4:	90630041 	srl	r3, r3
    2ec8:	60e40100 	muli	r7, r4, 256
    2ecc:	60c30100 	muli	r6, r3, 256
    2ed0:	10a02000 	addk	r5, r0, r4
    2ed4:	90a40041 	srl	r5, r4
    2ed8:	90a50041 	srl	r5, r5
    2edc:	90a50041 	srl	r5, r5
    2ee0:	90a50041 	srl	r5, r5
    2ee4:	90a50041 	srl	r5, r5
    2ee8:	90a50041 	srl	r5, r5
    2eec:	90a50041 	srl	r5, r5
    2ef0:	90a50041 	srl	r5, r5
    2ef4:	b0000000 	imm	0
    2ef8:	a4c6ffff 	andi	r6, r6, -1
    2efc:	80a72800 	or	r5, r7, r5
    2f00:	10801800 	addk	r4, r0, r3
    2f04:	90830041 	srl	r4, r3
    2f08:	90840041 	srl	r4, r4
    2f0c:	90840041 	srl	r4, r4
    2f10:	90840041 	srl	r4, r4
    2f14:	90840041 	srl	r4, r4
    2f18:	90840041 	srl	r4, r4
    2f1c:	90840041 	srl	r4, r4
    2f20:	90840041 	srl	r4, r4
    2f24:	b0000001 	imm	1
    2f28:	60650000 	muli	r3, r5, 0
    2f2c:	80c62000 	or	r6, r6, r4
    2f30:	80c61800 	or	r6, r6, r3
  }
  cbuffer_push_back_net(into, headerword);
    2f34:	b000ffff 	imm	-1
    2f38:	b9f4f2a8 	brlid	r15, -3416	// 21e0 <cbuffer_push_back_net>
    2f3c:	10b70000 	addk	r5, r23, r0
  for (size_t i = 0; i < transaction->data.size; ++i) {
    2f40:	e0730008 	lbui	r3, r19, 8
    2f44:	be0300f0 	beqid	r3, 240		// 3034
    2f48:	12c00000 	addk	r22, r0, r0
    uint32_t datum = transaction->data.words[i];
    2f4c:	e893000c 	lwi	r4, r19, 12
    2f50:	60760004 	muli	r3, r22, 4
    if (swapbytes) {
      datum = __bswap_32(datum);
    }
    cbuffer_push_back_net(into, datum);
    2f54:	10b70000 	addk	r5, r23, r0
      2, transaction->id, transaction->words, transaction->type, transaction->info);
  if (swapbytes) {
    headerword = __bswap_32(headerword);
  }
  cbuffer_push_back_net(into, headerword);
  for (size_t i = 0; i < transaction->data.size; ++i) {
    2f58:	32d60001 	addik	r22, r22, 1
    uint32_t datum = transaction->data.words[i];
    if (swapbytes) {
    2f5c:	be1800c0 	beqid	r24, 192		// 301c
    2f60:	c8c32000 	lw	r6, r3, r4
      datum = __bswap_32(datum);
    2f64:	b0000000 	imm	0
    2f68:	a486ffff 	andi	r4, r6, -1
    2f6c:	10603000 	addk	r3, r0, r6
    2f70:	90660041 	srl	r3, r6
    2f74:	90630041 	srl	r3, r3
    2f78:	90630041 	srl	r3, r3
    2f7c:	90630041 	srl	r3, r3
    2f80:	90630041 	srl	r3, r3
    2f84:	90630041 	srl	r3, r3
    2f88:	90630041 	srl	r3, r3
    2f8c:	90630041 	srl	r3, r3
    2f90:	90630041 	srl	r3, r3
    2f94:	90630041 	srl	r3, r3
    2f98:	90630041 	srl	r3, r3
    2f9c:	90630041 	srl	r3, r3
    2fa0:	90630041 	srl	r3, r3
    2fa4:	90630041 	srl	r3, r3
    2fa8:	90630041 	srl	r3, r3
    2fac:	90630041 	srl	r3, r3
    2fb0:	61040100 	muli	r8, r4, 256
    2fb4:	60c30100 	muli	r6, r3, 256
    2fb8:	10e02000 	addk	r7, r0, r4
    2fbc:	90e40041 	srl	r7, r4
    2fc0:	90e70041 	srl	r7, r7
    2fc4:	90e70041 	srl	r7, r7
    2fc8:	90e70041 	srl	r7, r7
    2fcc:	90e70041 	srl	r7, r7
    2fd0:	90e70041 	srl	r7, r7
    2fd4:	90e70041 	srl	r7, r7
    2fd8:	90e70041 	srl	r7, r7
    2fdc:	b0000000 	imm	0
    2fe0:	a4c6ffff 	andi	r6, r6, -1
    2fe4:	80e83800 	or	r7, r8, r7
    2fe8:	10801800 	addk	r4, r0, r3
    2fec:	90830041 	srl	r4, r3
    2ff0:	90840041 	srl	r4, r4
    2ff4:	90840041 	srl	r4, r4
    2ff8:	90840041 	srl	r4, r4
    2ffc:	90840041 	srl	r4, r4
    3000:	90840041 	srl	r4, r4
    3004:	90840041 	srl	r4, r4
    3008:	90840041 	srl	r4, r4
    300c:	b0000001 	imm	1
    3010:	60670000 	muli	r3, r7, 0
    3014:	80c62000 	or	r6, r6, r4
    3018:	80c61800 	or	r6, r6, r3
    }
    cbuffer_push_back_net(into, datum);
    301c:	b000ffff 	imm	-1
    3020:	b9f4f1c0 	brlid	r15, -3648	// 21e0 <cbuffer_push_back_net>
    3024:	80000000 	or	r0, r0, r0
      2, transaction->id, transaction->words, transaction->type, transaction->info);
  if (swapbytes) {
    headerword = __bswap_32(headerword);
  }
  cbuffer_push_back_net(into, headerword);
  for (size_t i = 0; i < transaction->data.size; ++i) {
    3028:	e0730008 	lbui	r3, r19, 8
    302c:	1463b003 	cmpu	r3, r3, r22
    3030:	bc43ff1c 	blti	r3, -228		// 2f4c
    if (swapbytes) {
      datum = __bswap_32(datum);
    }
    cbuffer_push_back_net(into, datum);
  }
}
    3034:	e9e10000 	lwi	r15, r1, 0
    3038:	ea61001c 	lwi	r19, r1, 28
    303c:	eac10020 	lwi	r22, r1, 32
    3040:	eae10024 	lwi	r23, r1, 36
    3044:	eb010028 	lwi	r24, r1, 40
    3048:	b60f0008 	rtsd	r15, 8
    304c:	3021002c 	addik	r1, r1, 44

00003050 <ipbus_packet_header>:

uint32_t ipbus_packet_header(uint32_t packet_id, uint32_t type) {
  return 0x200000f0 | ((0xffff & packet_id) << 8) | (0xf & type);
    3050:	b0000000 	imm	0
    3054:	a4a5ffff 	andi	r5, r5, -1
    3058:	60650100 	muli	r3, r5, 256
    305c:	a4c6000f 	andi	r6, r6, 15
    3060:	80633000 	or	r3, r3, r6
}
    3064:	b0002000 	imm	8192
    3068:	a06300f0 	ori	r3, r3, 240
    306c:	b60f0008 	rtsd	r15, 8
    3070:	80000000 	or	r0, r0, r0

00003074 <ipbus_process_input_stream>:
#include "macrologger.h"
#include "protocol.h"
#include "serialization.h"
#include "transactionhandler.h"

size_t ipbus_process_input_stream(Client* client) {
    3074:	3021ffd0 	addik	r1, r1, -48
    3078:	fa61001c 	swi	r19, r1, 28
    307c:	12650000 	addk	r19, r5, r0
    3080:	fac10020 	swi	r22, r1, 32
    3084:	fae10024 	swi	r23, r1, 36
    3088:	fb010028 	swi	r24, r1, 40
    308c:	f9e10000 	swi	r15, r1, 0
    3090:	fb21002c 	swi	r25, r1, 44
    3094:	32e50018 	addik	r23, r5, 24
  // check the state of the stream, and update the clients endian-ness (maybe)
  int stream_state = ipbus_stream_state(client->inputstream, &(client->swapbytes));
    3098:	10d70000 	addk	r6, r23, r0
    309c:	e8b30000 	lwi	r5, r19, 0
  size_t data_processed = 0;
  switch (stream_state) {
    30a0:	33000004 	addik	r24, r0, 4
#include "serialization.h"
#include "transactionhandler.h"

size_t ipbus_process_input_stream(Client* client) {
  // check the state of the stream, and update the clients endian-ness (maybe)
  int stream_state = ipbus_stream_state(client->inputstream, &(client->swapbytes));
    30a4:	b000ffff 	imm	-1
    30a8:	b9f4f8d4 	brlid	r15, -1836	// 297c <ipbus_stream_state>
    30ac:	12c00000 	addk	r22, r0, r0
  size_t data_processed = 0;
  switch (stream_state) {
    30b0:	1483c003 	cmpu	r4, r3, r24
    30b4:	be440070 	bltid	r4, 112		// 3124
    30b8:	60630004 	muli	r3, r3, 4
    30bc:	b0000000 	imm	0
    30c0:	3063d758 	addik	r3, r3, -10408
    30c4:	e8630000 	lwi	r3, r3, 0
    30c8:	98081800 	bra	r3
      }

    case IPBUS_ISTREAM_PACKET:
    case IPBUS_ISTREAM_PACKET_SWP_ORD:
      {
        uint32_t headerword = cbuffer_value_at_net(client->inputstream, 0);
    30cc:	e8b30000 	lwi	r5, r19, 0
    30d0:	b000ffff 	imm	-1
    30d4:	b9f4eee4 	brlid	r15, -4380	// 1fb8 <cbuffer_value_at_net>
    30d8:	10c00000 	addk	r6, r0, r0
        // now pop the data we processed off the input buffer
        cbuffer_deletefront(client->inputstream, 1);
    30dc:	e8b30000 	lwi	r5, r19, 0
      }

    case IPBUS_ISTREAM_PACKET:
    case IPBUS_ISTREAM_PACKET_SWP_ORD:
      {
        uint32_t headerword = cbuffer_value_at_net(client->inputstream, 0);
    30e0:	13230000 	addk	r25, r3, r0
        // now pop the data we processed off the input buffer
        cbuffer_deletefront(client->inputstream, 1);
    30e4:	b000ffff 	imm	-1
    30e8:	b9f4f2c8 	brlid	r15, -3384	// 23b0 <cbuffer_deletefront>
    30ec:	30c00001 	addik	r6, r0, 1
        LOG_DEBUG("Got new header packet %"PRIx32, headerword);
        // by definition this is in the correct endianness for the client
        cbuffer_push_back_net(client->outputstream, headerword);
    30f0:	e8b30004 	lwi	r5, r19, 4
    30f4:	b000ffff 	imm	-1
    30f8:	b9f4f0e8 	brlid	r15, -3864	// 21e0 <cbuffer_push_back_net>
    30fc:	10d90000 	addk	r6, r25, r0
        // pop off the data we've just processed
        data_processed += 1;
    3100:	30600001 	addik	r3, r0, 1
        break;
    3104:	12d61800 	addk	r22, r22, r3
#include "serialization.h"
#include "transactionhandler.h"

size_t ipbus_process_input_stream(Client* client) {
  // check the state of the stream, and update the clients endian-ness (maybe)
  int stream_state = ipbus_stream_state(client->inputstream, &(client->swapbytes));
    3108:	e8b30000 	lwi	r5, r19, 0
    310c:	b000ffff 	imm	-1
    3110:	b9f4f86c 	brlid	r15, -1940	// 297c <ipbus_stream_state>
    3114:	10d70000 	addk	r6, r23, r0
  size_t data_processed = 0;
  switch (stream_state) {
    3118:	1483c003 	cmpu	r4, r3, r24
    311c:	bea4ffa0 	bgeid	r4, -96		// 30bc
    3120:	60630004 	muli	r3, r3, 4
#include "transactionhandler.h"

size_t ipbus_process_input_stream(Client* client) {
  // check the state of the stream, and update the clients endian-ness (maybe)
  int stream_state = ipbus_stream_state(client->inputstream, &(client->swapbytes));
  size_t data_processed = 0;
    3124:	10600000 	addk	r3, r0, r0
        LOG_DEBUG("Got new header packet %"PRIx32, headerword);
        // by definition this is in the correct endianness for the client
        cbuffer_push_back_net(client->outputstream, headerword);
        // pop off the data we've just processed
        data_processed += 1;
        break;
    3128:	b810ffe0 	brid	-32		// 3108
    312c:	12d61800 	addk	r22, r22, r3
        LOG_DEBUG("Partial transaction");
        return 0; // and wait for more data
  }
  // recurse to process more data, if there is any.
  return data_processed + ipbus_process_input_stream(client);
}
    3130:	10760000 	addk	r3, r22, r0
    3134:	e9e10000 	lwi	r15, r1, 0
    3138:	ea61001c 	lwi	r19, r1, 28
    313c:	eac10020 	lwi	r22, r1, 32
    3140:	eae10024 	lwi	r23, r1, 36
    3144:	eb010028 	lwi	r24, r1, 40
    3148:	eb21002c 	lwi	r25, r1, 44
    314c:	b60f0008 	rtsd	r15, 8
    3150:	30210030 	addik	r1, r1, 48

    case IPBUS_ISTREAM_FULL_TRANS: 
      { 
        LOG_DEBUG("Processing full transaction");
        // why the brace: http://stackoverflow.com/questions/1231198/declaring-variables-inside-a-switch-statement
        data_processed += handle_transaction_stream(client->inputstream, client->swapbytes, client->outputstream);
    3154:	e8b30000 	lwi	r5, r19, 0
    3158:	e8d30018 	lwi	r6, r19, 24
    315c:	b0000000 	imm	0
    3160:	b9f40010 	brlid	r15, 16	// 3170 <handle_transaction_stream>
    3164:	e8f30004 	lwi	r7, r19, 4
        LOG_DEBUG("Got new header packet %"PRIx32, headerword);
        // by definition this is in the correct endianness for the client
        cbuffer_push_back_net(client->outputstream, headerword);
        // pop off the data we've just processed
        data_processed += 1;
        break;
    3168:	b810ffa0 	brid	-96		// 3108
    316c:	12d61800 	addk	r22, r22, r3

00003170 <handle_transaction_stream>:
  }

  return output;
}

int handle_transaction_stream(CircularBuffer* input, int swapbytes, CircularBuffer* output) {
    3170:	3021ff98 	addik	r1, r1, -104
    3174:	fb21005c 	swi	r25, r1, 92
    3178:	13260000 	addk	r25, r6, r0
    317c:	fb610064 	swi	r27, r1, 100
  ipbus_transaction_t trans_req = ipbus_decode_transaction(input, swapbytes);
    3180:	10c50000 	addk	r6, r5, r0
  }

  return output;
}

int handle_transaction_stream(CircularBuffer* input, int swapbytes, CircularBuffer* output) {
    3184:	13670000 	addk	r27, r7, r0
  ipbus_transaction_t trans_req = ipbus_decode_transaction(input, swapbytes);
    3188:	10f90000 	addk	r7, r25, r0
  }

  return output;
}

int handle_transaction_stream(CircularBuffer* input, int swapbytes, CircularBuffer* output) {
    318c:	fa61004c 	swi	r19, r1, 76
    3190:	12650000 	addk	r19, r5, r0
  ipbus_transaction_t trans_req = ipbus_decode_transaction(input, swapbytes);
    3194:	30a1003c 	addik	r5, r1, 60
  }

  return output;
}

int handle_transaction_stream(CircularBuffer* input, int swapbytes, CircularBuffer* output) {
    3198:	f9e10000 	swi	r15, r1, 0
    319c:	fae10054 	swi	r23, r1, 84
    31a0:	fb010058 	swi	r24, r1, 88
    31a4:	fb410060 	swi	r26, r1, 96
  ipbus_transaction_t trans_req = ipbus_decode_transaction(input, swapbytes);
    31a8:	b000ffff 	imm	-1
    31ac:	b9f4f94c 	brlid	r15, -1716	// 2af8 <ipbus_decode_transaction>
    31b0:	fac10050 	swi	r22, r1, 80
  LOG_DEBUG("Processing transaction %03x", trans_req.id);
  // indicate how much we consumed so we can delete it from the input stream
  int wordsprocessed = ipbus_transaction_endocded_size(&trans_req);
    31b4:	b000ffff 	imm	-1
    31b8:	b9f4fbf0 	brlid	r15, -1040	// 2da8 <ipbus_transaction_endocded_size>
    31bc:	30a1003c 	addik	r5, r1, 60
  cbuffer_deletefront(input, wordsprocessed);
    31c0:	10b30000 	addk	r5, r19, r0
    31c4:	10c30000 	addk	r6, r3, r0
    31c8:	b000ffff 	imm	-1
    31cc:	b9f4f1e4 	brlid	r15, -3612	// 23b0 <cbuffer_deletefront>
    31d0:	13030000 	addk	r24, r3, r0
#include "handlers.h"

static ipbus_transaction_t ipbus_process_transaction(const ipbus_transaction_t* input) {
  ipbus_transaction_t output;
  output.id = input->id;
  output.type = input->type;
    31d4:	e261003f 	lbui	r19, r1, 63
  output.info = IPBUS_INFO_SUCCESS;
  output.words = input->words;
  output.data.words = NULL;
  output.data.size = 0;

  switch (output.type) {
    31d8:	30600005 	addik	r3, r0, 5
#include "serialization.h"
#include "handlers.h"

static ipbus_transaction_t ipbus_process_transaction(const ipbus_transaction_t* input) {
  ipbus_transaction_t output;
  output.id = input->id;
    31dc:	e741003c 	lhui	r26, r1, 60
  output.info = IPBUS_INFO_SUCCESS;
  output.words = input->words;
  output.data.words = NULL;
  output.data.size = 0;

  switch (output.type) {
    31e0:	14731803 	cmpu	r3, r19, r3
    31e4:	be430164 	bltid	r3, 356		// 3348
    31e8:	e2e1003e 	lbui	r23, r1, 62
    31ec:	60730004 	muli	r3, r19, 4
    31f0:	b0000000 	imm	0
    31f4:	3063d76c 	addik	r3, r3, -10388
    31f8:	e8630000 	lwi	r3, r3, 0
    31fc:	98081800 	bra	r3
    case IPBUS_NIWRITE:
      handle_IPBUS_NIWRITE(input->words, &(input->data));
      break;
    case IPBUS_RMW:
      output.data.size = 1;
      output.data.words = malloc(sizeof(uint32_t));
    3200:	b0000000 	imm	0
    3204:	b9f41d34 	brlid	r15, 7476	// 4f38 <malloc>
    3208:	30a00004 	addik	r5, r0, 4
    320c:	12c30000 	addk	r22, r3, r0
      output.data.words[0] = handle_IPBUS_RMW(
          input->data.words[0], input->data.words[1], input->data.words[2]);
    3210:	e8610048 	lwi	r3, r1, 72
      handle_IPBUS_NIWRITE(input->words, &(input->data));
      break;
    case IPBUS_RMW:
      output.data.size = 1;
      output.data.words = malloc(sizeof(uint32_t));
      output.data.words[0] = handle_IPBUS_RMW(
    3214:	e8a30000 	lwi	r5, r3, 0
    3218:	e8c30004 	lwi	r6, r3, 4
    321c:	b0000000 	imm	0
    3220:	b9f402b8 	brlid	r15, 696	// 34d8 <handle_IPBUS_RMW>
    3224:	e8e30008 	lwi	r7, r3, 8
    3228:	f8760000 	swi	r3, r22, 0
      break;
    case IPBUS_NIWRITE:
      handle_IPBUS_NIWRITE(input->words, &(input->data));
      break;
    case IPBUS_RMW:
      output.data.size = 1;
    322c:	30800001 	addik	r4, r0, 1
      output.data.words[0] = handle_IPBUS_RMWSUM(
          input->data.words[0], input->data.words[1]);
      break;
  }

  return output;
    3230:	e8610020 	lwi	r3, r1, 32
  // indicate how much we consumed so we can delete it from the input stream
  int wordsprocessed = ipbus_transaction_endocded_size(&trans_req);
  cbuffer_deletefront(input, wordsprocessed);
  // perform request action(s) and prepare response
  ipbus_transaction_t trans_resp = ipbus_process_transaction(&trans_req);
  ipbus_encode_transaction(output, &trans_resp, swapbytes);
    3234:	10bb0000 	addk	r5, r27, r0
    3238:	10f90000 	addk	r7, r25, r0
      output.data.words[0] = handle_IPBUS_RMWSUM(
          input->data.words[0], input->data.words[1]);
      break;
  }

  return output;
    323c:	f8610030 	swi	r3, r1, 48
    3240:	e8610024 	lwi	r3, r1, 36
  // indicate how much we consumed so we can delete it from the input stream
  int wordsprocessed = ipbus_transaction_endocded_size(&trans_req);
  cbuffer_deletefront(input, wordsprocessed);
  // perform request action(s) and prepare response
  ipbus_transaction_t trans_resp = ipbus_process_transaction(&trans_req);
  ipbus_encode_transaction(output, &trans_resp, swapbytes);
    3244:	30c1002c 	addik	r6, r1, 44
      output.data.words[0] = handle_IPBUS_RMWSUM(
          input->data.words[0], input->data.words[1]);
      break;
  }

  return output;
    3248:	f741002c 	shi	r26, r1, 44
    324c:	f8610034 	swi	r3, r1, 52
    3250:	f2e1002e 	sbi	r23, r1, 46
    3254:	f261002f 	sbi	r19, r1, 47
    3258:	fac10038 	swi	r22, r1, 56
    325c:	f0010030 	sbi	r0, r1, 48
  // indicate how much we consumed so we can delete it from the input stream
  int wordsprocessed = ipbus_transaction_endocded_size(&trans_req);
  cbuffer_deletefront(input, wordsprocessed);
  // perform request action(s) and prepare response
  ipbus_transaction_t trans_resp = ipbus_process_transaction(&trans_req);
  ipbus_encode_transaction(output, &trans_resp, swapbytes);
    3260:	b000ffff 	imm	-1
    3264:	b9f4fbb0 	brlid	r15, -1104	// 2e14 <ipbus_encode_transaction>
    3268:	f0810034 	sbi	r4, r1, 52
  return wordsprocessed;
}
    326c:	10780000 	addk	r3, r24, r0
    3270:	e9e10000 	lwi	r15, r1, 0
    3274:	ea61004c 	lwi	r19, r1, 76
    3278:	eac10050 	lwi	r22, r1, 80
    327c:	eae10054 	lwi	r23, r1, 84
    3280:	eb010058 	lwi	r24, r1, 88
    3284:	eb21005c 	lwi	r25, r1, 92
    3288:	eb410060 	lwi	r26, r1, 96
    328c:	eb610064 	lwi	r27, r1, 100
    3290:	b60f0008 	rtsd	r15, 8
    3294:	30210068 	addik	r1, r1, 104
      output.data.words[0] = handle_IPBUS_RMW(
          input->data.words[0], input->data.words[1], input->data.words[2]);
      break;
    case IPBUS_RMWSUM:
      output.data.size = 1;
      output.data.words = malloc(sizeof(uint32_t));
    3298:	b0000000 	imm	0
    329c:	b9f41c9c 	brlid	r15, 7324	// 4f38 <malloc>
    32a0:	30a00004 	addik	r5, r0, 4
    32a4:	12c30000 	addk	r22, r3, r0
      output.data.words[0] = handle_IPBUS_RMWSUM(
          input->data.words[0], input->data.words[1]);
    32a8:	e8610048 	lwi	r3, r1, 72
          input->data.words[0], input->data.words[1], input->data.words[2]);
      break;
    case IPBUS_RMWSUM:
      output.data.size = 1;
      output.data.words = malloc(sizeof(uint32_t));
      output.data.words[0] = handle_IPBUS_RMWSUM(
    32ac:	e8a30000 	lwi	r5, r3, 0
    32b0:	b0000000 	imm	0
    32b4:	b9f40240 	brlid	r15, 576	// 34f4 <handle_IPBUS_RMWSUM>
    32b8:	e8c30004 	lwi	r6, r3, 4
    32bc:	f8760000 	swi	r3, r22, 0
      output.data.words = malloc(sizeof(uint32_t));
      output.data.words[0] = handle_IPBUS_RMW(
          input->data.words[0], input->data.words[1], input->data.words[2]);
      break;
    case IPBUS_RMWSUM:
      output.data.size = 1;
    32c0:	b810ff70 	brid	-144		// 3230
    32c4:	30800001 	addik	r4, r0, 1
  output.data.words = NULL;
  output.data.size = 0;

  switch (output.type) {
    case IPBUS_READ:
      output.data = handle_IPBUS_READ(input->words, input->data.words[0]);
    32c8:	e8610048 	lwi	r3, r1, 72
    32cc:	10d70000 	addk	r6, r23, r0
    32d0:	30a10024 	addik	r5, r1, 36
    32d4:	b0000000 	imm	0
    32d8:	b9f4007c 	brlid	r15, 124	// 3354 <handle_IPBUS_READ>
    32dc:	e8e30000 	lwi	r7, r3, 0
    32e0:	e0810024 	lbui	r4, r1, 36
    32e4:	b810ff4c 	brid	-180		// 3230
    32e8:	eac10028 	lwi	r22, r1, 40
      break;
    case IPBUS_NIREAD:
      output.data = handle_IPBUS_NIREAD(input->words, input->data.words[0]);
      break;
    case IPBUS_WRITE:
      handle_IPBUS_WRITE(input->words, &(input->data));
    32ec:	10b70000 	addk	r5, r23, r0
    32f0:	b0000000 	imm	0
    32f4:	b9f40160 	brlid	r15, 352	// 3454 <handle_IPBUS_WRITE>
    32f8:	30c10044 	addik	r6, r1, 68
  output.id = input->id;
  output.type = input->type;
  output.info = IPBUS_INFO_SUCCESS;
  output.words = input->words;
  output.data.words = NULL;
  output.data.size = 0;
    32fc:	10800000 	addk	r4, r0, r0
  ipbus_transaction_t output;
  output.id = input->id;
  output.type = input->type;
  output.info = IPBUS_INFO_SUCCESS;
  output.words = input->words;
  output.data.words = NULL;
    3300:	b810ff30 	brid	-208		// 3230
    3304:	12c40000 	addk	r22, r4, r0
  switch (output.type) {
    case IPBUS_READ:
      output.data = handle_IPBUS_READ(input->words, input->data.words[0]);
      break;
    case IPBUS_NIREAD:
      output.data = handle_IPBUS_NIREAD(input->words, input->data.words[0]);
    3308:	e8610048 	lwi	r3, r1, 72
    330c:	10d70000 	addk	r6, r23, r0
    3310:	30a10024 	addik	r5, r1, 36
    3314:	b0000000 	imm	0
    3318:	b9f400c0 	brlid	r15, 192	// 33d8 <handle_IPBUS_NIREAD>
    331c:	e8e30000 	lwi	r7, r3, 0
    3320:	e0810024 	lbui	r4, r1, 36
    3324:	b810ff0c 	brid	-244		// 3230
    3328:	eac10028 	lwi	r22, r1, 40
      break;
    case IPBUS_WRITE:
      handle_IPBUS_WRITE(input->words, &(input->data));
      break;
    case IPBUS_NIWRITE:
      handle_IPBUS_NIWRITE(input->words, &(input->data));
    332c:	10b70000 	addk	r5, r23, r0
    3330:	b0000000 	imm	0
    3334:	b9f4015c 	brlid	r15, 348	// 3490 <handle_IPBUS_NIWRITE>
    3338:	30c10044 	addik	r6, r1, 68
  output.id = input->id;
  output.type = input->type;
  output.info = IPBUS_INFO_SUCCESS;
  output.words = input->words;
  output.data.words = NULL;
  output.data.size = 0;
    333c:	10800000 	addk	r4, r0, r0
  ipbus_transaction_t output;
  output.id = input->id;
  output.type = input->type;
  output.info = IPBUS_INFO_SUCCESS;
  output.words = input->words;
  output.data.words = NULL;
    3340:	b810fef0 	brid	-272		// 3230
    3344:	12c40000 	addk	r22, r4, r0
  output.data.size = 0;
    3348:	10800000 	addk	r4, r0, r0
  ipbus_transaction_t output;
  output.id = input->id;
  output.type = input->type;
  output.info = IPBUS_INFO_SUCCESS;
  output.words = input->words;
  output.data.words = NULL;
    334c:	b810fee4 	brid	-284		// 3230
    3350:	12c40000 	addk	r22, r4, r0

00003354 <handle_IPBUS_READ>:
#include "handlers.h"

#include <inttypes.h>

// Read functions return a buffer of data
ipbus_payload_t handle_IPBUS_READ(uint8_t nwords, uint32_t base_address) {
    3354:	3021ffd0 	addik	r1, r1, -48
    3358:	fb010028 	swi	r24, r1, 40
  LOG_DEBUG("==> IPBUS_READ     nwords: %"PRIx8" @ addr: %"PRIx32, nwords, base_address);
  ipbus_payload_t output;
  output.size = nwords;
  output.words = malloc(nwords * sizeof(uint32_t));
    335c:	63060004 	muli	r24, r6, 4
#include "handlers.h"

#include <inttypes.h>

// Read functions return a buffer of data
ipbus_payload_t handle_IPBUS_READ(uint8_t nwords, uint32_t base_address) {
    3360:	fa61001c 	swi	r19, r1, 28
    3364:	12650000 	addk	r19, r5, r0
  LOG_DEBUG("==> IPBUS_READ     nwords: %"PRIx8" @ addr: %"PRIx32, nwords, base_address);
  ipbus_payload_t output;
  output.size = nwords;
  output.words = malloc(nwords * sizeof(uint32_t));
    3368:	10b80000 	addk	r5, r24, r0
#include "handlers.h"

#include <inttypes.h>

// Read functions return a buffer of data
ipbus_payload_t handle_IPBUS_READ(uint8_t nwords, uint32_t base_address) {
    336c:	f9e10000 	swi	r15, r1, 0
    3370:	fac10020 	swi	r22, r1, 32
    3374:	fae10024 	swi	r23, r1, 36
    3378:	fb21002c 	swi	r25, r1, 44
    337c:	12e60000 	addk	r23, r6, r0
  LOG_DEBUG("==> IPBUS_READ     nwords: %"PRIx8" @ addr: %"PRIx32, nwords, base_address);
  ipbus_payload_t output;
  output.size = nwords;
  output.words = malloc(nwords * sizeof(uint32_t));
    3380:	b0000000 	imm	0
    3384:	b9f41bb4 	brlid	r15, 7092	// 4f38 <malloc>
    3388:	13270000 	addk	r25, r7, r0
  memcpy(output.words, membase + base_address, nwords * sizeof(uint32_t));
    338c:	b0000000 	imm	0
    3390:	e8c0eae8 	lwi	r6, r0, -5400	// eae8 <membase>
// Read functions return a buffer of data
ipbus_payload_t handle_IPBUS_READ(uint8_t nwords, uint32_t base_address) {
  LOG_DEBUG("==> IPBUS_READ     nwords: %"PRIx8" @ addr: %"PRIx32, nwords, base_address);
  ipbus_payload_t output;
  output.size = nwords;
  output.words = malloc(nwords * sizeof(uint32_t));
    3394:	12c30000 	addk	r22, r3, r0
  memcpy(output.words, membase + base_address, nwords * sizeof(uint32_t));
    3398:	10f80000 	addk	r7, r24, r0
    339c:	10a30000 	addk	r5, r3, r0
    33a0:	b0000000 	imm	0
    33a4:	b9f42774 	brlid	r15, 10100	// 5b18 <memcpy>
    33a8:	10c6c800 	addk	r6, r6, r25
  /*  
  for (int i = 0; i < output.size; ++i) {
    LOG_DEBUG("Reading %016"PRIxPTR" => %08x", (uintptr_t)(membase + base_address  * sizeof(uint32_t) + i * sizeof(uint32_t)), output.words[i]);
  }
  */
  return output;
    33ac:	f2f30000 	sbi	r23, r19, 0
    33b0:	fad30004 	swi	r22, r19, 4
}
    33b4:	10730000 	addk	r3, r19, r0
    33b8:	e9e10000 	lwi	r15, r1, 0
    33bc:	ea61001c 	lwi	r19, r1, 28
    33c0:	eac10020 	lwi	r22, r1, 32
    33c4:	eae10024 	lwi	r23, r1, 36
    33c8:	eb010028 	lwi	r24, r1, 40
    33cc:	eb21002c 	lwi	r25, r1, 44
    33d0:	b60f0008 	rtsd	r15, 8
    33d4:	30210030 	addik	r1, r1, 48

000033d8 <handle_IPBUS_NIREAD>:

ipbus_payload_t handle_IPBUS_NIREAD(uint8_t nwords, uint32_t base_address) {
    33d8:	3021ffd8 	addik	r1, r1, -40
    33dc:	fa61001c 	swi	r19, r1, 28
    33e0:	12660000 	addk	r19, r6, r0
    33e4:	fac10020 	swi	r22, r1, 32
    33e8:	12c50000 	addk	r22, r5, r0
  LOG_DEBUG("==> IPBUS_NIREAD   nwords: %"PRIx8" @ addr: %"PRIx32, nwords, base_address);
  ipbus_payload_t output;
  output.size = nwords;
  output.words = malloc(nwords * sizeof(uint32_t));
    33ec:	60a60004 	muli	r5, r6, 4
  }
  */
  return output;
}

ipbus_payload_t handle_IPBUS_NIREAD(uint8_t nwords, uint32_t base_address) {
    33f0:	fae10024 	swi	r23, r1, 36
    33f4:	f9e10000 	swi	r15, r1, 0
  LOG_DEBUG("==> IPBUS_NIREAD   nwords: %"PRIx8" @ addr: %"PRIx32, nwords, base_address);
  ipbus_payload_t output;
  output.size = nwords;
  output.words = malloc(nwords * sizeof(uint32_t));
    33f8:	b0000000 	imm	0
    33fc:	b9f41b3c 	brlid	r15, 6972	// 4f38 <malloc>
    3400:	12e70000 	addk	r23, r7, r0
  // read the same place a bunch of times. think we need to fix this?
  for (int i = 0; i < nwords; ++i) {
    3404:	bc13002c 	beqi	r19, 44		// 3430
    3408:	b0000000 	imm	0
    340c:	e8e0eae8 	lwi	r7, r0, -5400	// eae8 <membase>
    3410:	10800000 	addk	r4, r0, r0
    3414:	10e7b800 	addk	r7, r7, r23
    output.words[i] = *((volatile uint32_t*) (membase + base_address));
    3418:	e9070000 	lwi	r8, r7, 0
    341c:	60c40004 	muli	r6, r4, 4
  LOG_DEBUG("==> IPBUS_NIREAD   nwords: %"PRIx8" @ addr: %"PRIx32, nwords, base_address);
  ipbus_payload_t output;
  output.size = nwords;
  output.words = malloc(nwords * sizeof(uint32_t));
  // read the same place a bunch of times. think we need to fix this?
  for (int i = 0; i < nwords; ++i) {
    3420:	30840001 	addik	r4, r4, 1
    output.words[i] = *((volatile uint32_t*) (membase + base_address));
    3424:	d9061800 	sw	r8, r6, r3
  LOG_DEBUG("==> IPBUS_NIREAD   nwords: %"PRIx8" @ addr: %"PRIx32, nwords, base_address);
  ipbus_payload_t output;
  output.size = nwords;
  output.words = malloc(nwords * sizeof(uint32_t));
  // read the same place a bunch of times. think we need to fix this?
  for (int i = 0; i < nwords; ++i) {
    3428:	14d32001 	cmp	r6, r19, r4
    342c:	bc46ffec 	blti	r6, -20		// 3418
    output.words[i] = *((volatile uint32_t*) (membase + base_address));
  }
  return output;
    3430:	f8760004 	swi	r3, r22, 4
    3434:	f2760000 	sbi	r19, r22, 0
}
    3438:	10760000 	addk	r3, r22, r0
    343c:	e9e10000 	lwi	r15, r1, 0
    3440:	ea61001c 	lwi	r19, r1, 28
    3444:	eac10020 	lwi	r22, r1, 32
    3448:	eae10024 	lwi	r23, r1, 36
    344c:	b60f0008 	rtsd	r15, 8
    3450:	30210028 	addik	r1, r1, 40

00003454 <handle_IPBUS_WRITE>:

// Write functions return no data - return value should indicate whether
// write was successful.  The write address is the first word of the data.
int handle_IPBUS_WRITE(uint8_t writesize, const ipbus_payload_t* data) {
    3454:	3021ffe4 	addik	r1, r1, -28
    3458:	f9e10000 	swi	r15, r1, 0
  LOG_DEBUG("==> IPBUS_WRITE    writesize: %"PRIx8" @ addr: %"PRIx32, writesize, data->words[0]);
  memcpy(membase + data->words[0], data->words + 1, writesize * sizeof(uint32_t));
    345c:	e8c60004 	lwi	r6, r6, 4
    3460:	60e50004 	muli	r7, r5, 4
    3464:	b0000000 	imm	0
    3468:	e8a0eae8 	lwi	r5, r0, -5400	// eae8 <membase>
    346c:	e8660000 	lwi	r3, r6, 0
    3470:	30c60004 	addik	r6, r6, 4
    3474:	b0000000 	imm	0
    3478:	b9f426a0 	brlid	r15, 9888	// 5b18 <memcpy>
    347c:	10a51800 	addk	r5, r5, r3
  for (int i = 1; i < data->size; ++i) {
    LOG_DEBUG("writing %016"PRIxPTR" <= %08x", (uintptr_t)(membase + data->words[0] * sizeof(uint32_t) + (i - 1)*sizeof(uint32_t)), data->words[i]);
  }
  */
  return 0;
}
    3480:	e9e10000 	lwi	r15, r1, 0
    3484:	10600000 	addk	r3, r0, r0
    3488:	b60f0008 	rtsd	r15, 8
    348c:	3021001c 	addik	r1, r1, 28

00003490 <handle_IPBUS_NIWRITE>:

int handle_IPBUS_NIWRITE(uint8_t writesize, const ipbus_payload_t* data) {
  LOG_DEBUG("==> IPBUS_NIWRITE  writesize: %"PRIx8" @ addr: %"PRIx32, writesize, data->words[0]);
  // write the same place a bunch of times. think we need to fix this?
  for (int i = 1; i < data->size; ++i) {
    3490:	e0860000 	lbui	r4, r6, 0
    3494:	30600001 	addik	r3, r0, 1
    3498:	14841801 	cmp	r4, r4, r3
    349c:	bea40034 	bgeid	r4, 52		// 34d0
    34a0:	60a30004 	muli	r5, r3, 4
    34a4:	b0000000 	imm	0
    34a8:	e8e0eae8 	lwi	r7, r0, -5400	// eae8 <membase>
    34ac:	e8860004 	lwi	r4, r6, 4
    *(uint32_t*)(membase + data->words[0]) = data->words[i];
    34b0:	c8a52000 	lw	r5, r5, r4
    34b4:	e9040000 	lwi	r8, r4, 0
}

int handle_IPBUS_NIWRITE(uint8_t writesize, const ipbus_payload_t* data) {
  LOG_DEBUG("==> IPBUS_NIWRITE  writesize: %"PRIx8" @ addr: %"PRIx32, writesize, data->words[0]);
  // write the same place a bunch of times. think we need to fix this?
  for (int i = 1; i < data->size; ++i) {
    34b8:	30630001 	addik	r3, r3, 1
    *(uint32_t*)(membase + data->words[0]) = data->words[i];
    34bc:	d8a83800 	sw	r5, r8, r7
}

int handle_IPBUS_NIWRITE(uint8_t writesize, const ipbus_payload_t* data) {
  LOG_DEBUG("==> IPBUS_NIWRITE  writesize: %"PRIx8" @ addr: %"PRIx32, writesize, data->words[0]);
  // write the same place a bunch of times. think we need to fix this?
  for (int i = 1; i < data->size; ++i) {
    34c0:	e0a60000 	lbui	r5, r6, 0
    34c4:	14a51801 	cmp	r5, r5, r3
    34c8:	be45ffe8 	bltid	r5, -24		// 34b0
    34cc:	60a30004 	muli	r5, r3, 4
    *(uint32_t*)(membase + data->words[0]) = data->words[i];
  }
  return 0;
}
    34d0:	b60f0008 	rtsd	r15, 8
    34d4:	10600000 	addk	r3, r0, r0

000034d8 <handle_IPBUS_RMW>:

// Read write modifies returns original contents at address
uint32_t handle_IPBUS_RMW(uint32_t base_address, uint32_t andterm, uint32_t orterm) {
  LOG_DEBUG("==> IPBUS_RMW      @ addr: %"PRIx32" - AND: %"PRIx32" OR: %"PRIx32, 
      base_address, andterm, orterm);
  uint32_t current = *(uint32_t*)(membase + base_address);
    34d8:	b0000000 	imm	0
    34dc:	e880eae8 	lwi	r4, r0, -5400	// eae8 <membase>
    34e0:	c8652000 	lw	r3, r5, r4
  *(uint32_t*)(membase + base_address) = (current & andterm) | orterm;
    34e4:	84c33000 	and	r6, r3, r6
    34e8:	80e63800 	or	r7, r6, r7
  return current;
}
    34ec:	b60f0008 	rtsd	r15, 8
    34f0:	d8e52000 	sw	r7, r5, r4

000034f4 <handle_IPBUS_RMWSUM>:

uint32_t handle_IPBUS_RMWSUM(uint32_t base_address, uint32_t addend) {
  LOG_DEBUG("==> IPBUS_RMWSUM   @ addr: %"PRIx32" - +: %"PRIx32, 
      base_address, addend);
  uint32_t current = *(uint32_t*)(membase + base_address);
    34f4:	b0000000 	imm	0
    34f8:	e880eae8 	lwi	r4, r0, -5400	// eae8 <membase>
    34fc:	c8652000 	lw	r3, r5, r4
  *(uint32_t*)(membase + base_address) = current + addend;
    3500:	10c33000 	addk	r6, r3, r6
  return current;
}
    3504:	b60f0008 	rtsd	r15, 8
    3508:	d8c52000 	sw	r6, r5, r4

0000350c <membase_init>:

unsigned char* membase=0;

int membase_init(void) { 
  return 1;
}
    350c:	b60f0008 	rtsd	r15, 8
    3510:	30600001 	addik	r3, r0, 1

00003514 <membase_close>:

int membase_close(void) {
  return 1;
}
    3514:	b60f0008 	rtsd	r15, 8
    3518:	30600001 	addik	r3, r0, 1

0000351c <write>:
    351c:	3021ffd8 	addik	r1, r1, -40
    3520:	fac10020 	swi	r22, r1, 32
    3524:	fae10024 	swi	r23, r1, 36
    3528:	f9e10000 	swi	r15, r1, 0
    352c:	fa61001c 	swi	r19, r1, 28
    3530:	12e70000 	addk	r23, r7, r0
    3534:	be670060 	bleid	r7, 96		// 3594
    3538:	12c60000 	addk	r22, r6, r0
    353c:	b8100020 	brid	32		// 355c
    3540:	12600000 	addk	r19, r0, r0
    3544:	b0000000 	imm	0
    3548:	b9f40864 	brlid	r15, 2148	// 3dac <outbyte>
    354c:	32730001 	addik	r19, r19, 1
    3550:	14979801 	cmp	r4, r23, r19
    3554:	bea40044 	bgeid	r4, 68		// 3598
    3558:	10770000 	addk	r3, r23, r0
    355c:	c0b3b000 	lbu	r5, r19, r22
    3560:	90a50060 	sext8	r5, r5
    3564:	a885000a 	xori	r4, r5, 10
    3568:	bc24ffdc 	bnei	r4, -36		// 3544
    356c:	b0000000 	imm	0
    3570:	b9f4083c 	brlid	r15, 2108	// 3dac <outbyte>
    3574:	30a0000d 	addik	r5, r0, 13
    3578:	c0b3b000 	lbu	r5, r19, r22
    357c:	32730001 	addik	r19, r19, 1
    3580:	b0000000 	imm	0
    3584:	b9f40828 	brlid	r15, 2088	// 3dac <outbyte>
    3588:	90a50060 	sext8	r5, r5
    358c:	14979801 	cmp	r4, r23, r19
    3590:	bc44ffcc 	blti	r4, -52		// 355c
    3594:	10770000 	addk	r3, r23, r0
    3598:	e9e10000 	lwi	r15, r1, 0
    359c:	ea61001c 	lwi	r19, r1, 28
    35a0:	eac10020 	lwi	r22, r1, 32
    35a4:	eae10024 	lwi	r23, r1, 36
    35a8:	b60f0008 	rtsd	r15, 8
    35ac:	30210028 	addik	r1, r1, 40

000035b0 <read>:
    35b0:	3021ffd8 	addik	r1, r1, -40
    35b4:	fac10020 	swi	r22, r1, 32
    35b8:	fae10024 	swi	r23, r1, 36
    35bc:	f9e10000 	swi	r15, r1, 0
    35c0:	fa61001c 	swi	r19, r1, 28
    35c4:	12c70000 	addk	r22, r7, r0
    35c8:	12e60000 	addk	r23, r6, r0
    35cc:	be670058 	bleid	r7, 88		// 3624
    35d0:	30600001 	addik	r3, r0, 1
    35d4:	b8100020 	brid	32		// 35f4
    35d8:	12600000 	addk	r19, r0, r0
    35dc:	be440048 	bltid	r4, 72		// 3624
    35e0:	30730001 	addik	r3, r19, 1
    35e4:	32730001 	addik	r19, r19, 1
    35e8:	14769801 	cmp	r3, r22, r19
    35ec:	bea30038 	bgeid	r3, 56		// 3624
    35f0:	30730001 	addik	r3, r19, 1
    35f4:	b0000000 	imm	0
    35f8:	b9f40758 	brlid	r15, 1880	// 3d50 <inbyte>
    35fc:	80000000 	or	r0, r0, r0
    3600:	a8a3000d 	xori	r5, r3, 13
    3604:	a883000a 	xori	r4, r3, 10
    3608:	a4a500ff 	andi	r5, r5, 255
    360c:	a48400ff 	andi	r4, r4, 255
    3610:	d073b800 	sb	r3, r19, r23
    3614:	3065ffff 	addik	r3, r5, -1
    3618:	bea3ffc4 	bgeid	r3, -60		// 35dc
    361c:	3084ffff 	addik	r4, r4, -1
    3620:	30730001 	addik	r3, r19, 1
    3624:	e9e10000 	lwi	r15, r1, 0
    3628:	ea61001c 	lwi	r19, r1, 28
    362c:	eac10020 	lwi	r22, r1, 32
    3630:	eae10024 	lwi	r23, r1, 36
    3634:	b60f0008 	rtsd	r15, 8
    3638:	30210028 	addik	r1, r1, 40

0000363c <time>:
    363c:	b60f0008 	rtsd	r15, 8
    3640:	10600000 	addk	r3, r0, r0

00003644 <padding>:
    3644:	3021ffdc 	addik	r1, r1, -36
    3648:	14650000 	rsubk	r3, r5, r0
    364c:	fa61001c 	swi	r19, r1, 28
    3650:	f9e10000 	swi	r15, r1, 0
    3654:	fac10020 	swi	r22, r1, 32
    3658:	80a32800 	or	r5, r3, r5
    365c:	bea5004c 	bgeid	r5, 76		// 36a8
    3660:	12660000 	addk	r19, r6, r0
    3664:	e8660010 	lwi	r3, r6, 16
    3668:	14830000 	rsubk	r4, r3, r0
    366c:	80641800 	or	r3, r4, r3
    3670:	bea3003c 	bgeid	r3, 60		// 36ac
    3674:	e9e10000 	lwi	r15, r1, 0
    3678:	eac60000 	lwi	r22, r6, 0
    367c:	e8660004 	lwi	r3, r6, 4
    3680:	1463b001 	cmp	r3, r3, r22
    3684:	bca30028 	bgei	r3, 40		// 36ac
    3688:	e0b3000c 	lbui	r5, r19, 12
    368c:	32d60001 	addik	r22, r22, 1
    3690:	b0000000 	imm	0
    3694:	b9f40718 	brlid	r15, 1816	// 3dac <outbyte>
    3698:	90a50060 	sext8	r5, r5
    369c:	e8730004 	lwi	r3, r19, 4
    36a0:	1463b001 	cmp	r3, r3, r22
    36a4:	bc43ffe4 	blti	r3, -28		// 3688
    36a8:	e9e10000 	lwi	r15, r1, 0
    36ac:	ea61001c 	lwi	r19, r1, 28
    36b0:	eac10020 	lwi	r22, r1, 32
    36b4:	b60f0008 	rtsd	r15, 8
    36b8:	30210024 	addik	r1, r1, 36

000036bc <outnum>:
    36bc:	3021ff90 	addik	r1, r1, -112
    36c0:	a866000a 	xori	r3, r6, 10
    36c4:	fae1005c 	swi	r23, r1, 92
    36c8:	12e60000 	addk	r23, r6, r0
    36cc:	b0000000 	imm	0
    36d0:	e8c0d784 	lwi	r6, r0, -10364
    36d4:	14830000 	rsubk	r4, r3, r0
    36d8:	fb410068 	swi	r26, r1, 104
    36dc:	f8c1001c 	swi	r6, r1, 28
    36e0:	b0000000 	imm	0
    36e4:	e8c0d788 	lwi	r6, r0, -10360
    36e8:	f9e10000 	swi	r15, r1, 0
    36ec:	fa610054 	swi	r19, r1, 84
    36f0:	f8c10020 	swi	r6, r1, 32
    36f4:	b0000000 	imm	0
    36f8:	e8c0d78c 	lwi	r6, r0, -10356
    36fc:	fac10058 	swi	r22, r1, 88
    3700:	fb010060 	swi	r24, r1, 96
    3704:	f8c10024 	swi	r6, r1, 36
    3708:	b0000000 	imm	0
    370c:	e8c0d790 	lwi	r6, r0, -10352
    3710:	fb210064 	swi	r25, r1, 100
    3714:	fb61006c 	swi	r27, r1, 108
    3718:	f8c10028 	swi	r6, r1, 40
    371c:	b0000000 	imm	0
    3720:	e0c0d794 	lbui	r6, r0, -10348
    3724:	80641800 	or	r3, r4, r3
    3728:	13470000 	addk	r26, r7, r0
    372c:	be43000c 	bltid	r3, 12		// 3738
    3730:	f0c1002c 	sbi	r6, r1, 44
    3734:	bc450174 	blti	r5, 372		// 38a8
    3738:	12650000 	addk	r19, r5, r0
    373c:	13600000 	addk	r27, r0, r0
    3740:	33210030 	addik	r25, r1, 48
    3744:	b810000c 	brid	12		// 3750
    3748:	12d90000 	addk	r22, r25, r0
    374c:	12d80000 	addk	r22, r24, r0
    3750:	10b30000 	addk	r5, r19, r0
    3754:	10d70000 	addk	r6, r23, r0
    3758:	b0000000 	imm	0
    375c:	b9f49a20 	brlid	r15, -26080	// d17c <__umodsi3>
    3760:	33160001 	addik	r24, r22, 1
    3764:	10611800 	addk	r3, r1, r3
    3768:	e063001c 	lbui	r3, r3, 28
    376c:	10b30000 	addk	r5, r19, r0
    3770:	10d70000 	addk	r6, r23, r0
    3774:	b0000000 	imm	0
    3778:	b9f4995c 	brlid	r15, -26276	// d0d4 <__udivsi3>
    377c:	f0760000 	sbi	r3, r22, 0
    3780:	be23ffcc 	bneid	r3, -52		// 374c
    3784:	12630000 	addk	r19, r3, r0
    3788:	be1b0014 	beqid	r27, 20		// 379c
    378c:	10b90000 	addk	r5, r25, r0
    3790:	3060002d 	addik	r3, r0, 45
    3794:	f0760001 	sbi	r3, r22, 1
    3798:	33160002 	addik	r24, r22, 2
    379c:	f0180000 	sbi	r0, r24, 0
    37a0:	b0000000 	imm	0
    37a4:	b9f450e4 	brlid	r15, 20708	// 8888 <strlen>
    37a8:	3278ffff 	addik	r19, r24, -1
    37ac:	e89a0014 	lwi	r4, r26, 20
    37b0:	f87a0000 	swi	r3, r26, 0
    37b4:	10da0000 	addk	r6, r26, r0
    37b8:	14a40000 	rsubk	r5, r4, r0
    37bc:	80a52000 	or	r5, r5, r4
    37c0:	a8a5ffff 	xori	r5, r5, -1
    37c4:	10602800 	addk	r3, r0, r5
    37c8:	90650041 	srl	r3, r5
    37cc:	90630041 	srl	r3, r3
    37d0:	90630041 	srl	r3, r3
    37d4:	90630041 	srl	r3, r3
    37d8:	90630041 	srl	r3, r3
    37dc:	90630041 	srl	r3, r3
    37e0:	90630041 	srl	r3, r3
    37e4:	90630041 	srl	r3, r3
    37e8:	90630041 	srl	r3, r3
    37ec:	90630041 	srl	r3, r3
    37f0:	90630041 	srl	r3, r3
    37f4:	90630041 	srl	r3, r3
    37f8:	90630041 	srl	r3, r3
    37fc:	90630041 	srl	r3, r3
    3800:	90630041 	srl	r3, r3
    3804:	90630041 	srl	r3, r3
    3808:	90630041 	srl	r3, r3
    380c:	90630041 	srl	r3, r3
    3810:	90630041 	srl	r3, r3
    3814:	90630041 	srl	r3, r3
    3818:	90630041 	srl	r3, r3
    381c:	90630041 	srl	r3, r3
    3820:	90630041 	srl	r3, r3
    3824:	90630041 	srl	r3, r3
    3828:	90630041 	srl	r3, r3
    382c:	90630041 	srl	r3, r3
    3830:	90630041 	srl	r3, r3
    3834:	90630041 	srl	r3, r3
    3838:	90630041 	srl	r3, r3
    383c:	90630041 	srl	r3, r3
    3840:	90630041 	srl	r3, r3
    3844:	10a30000 	addk	r5, r3, r0
    3848:	b9f4fdfc 	brlid	r15, -516	// 3644 <padding>
    384c:	f8610050 	swi	r3, r1, 80
    3850:	14799803 	cmpu	r3, r25, r19
    3854:	bc430020 	blti	r3, 32		// 3874
    3858:	e0b30000 	lbui	r5, r19, 0
    385c:	3273ffff 	addik	r19, r19, -1
    3860:	b0000000 	imm	0
    3864:	b9f40548 	brlid	r15, 1352	// 3dac <outbyte>
    3868:	90a50060 	sext8	r5, r5
    386c:	14799803 	cmpu	r3, r25, r19
    3870:	bca3ffe8 	bgei	r3, -24		// 3858
    3874:	e8ba0014 	lwi	r5, r26, 20
    3878:	b9f4fdcc 	brlid	r15, -564	// 3644 <padding>
    387c:	10da0000 	addk	r6, r26, r0
    3880:	e9e10000 	lwi	r15, r1, 0
    3884:	ea610054 	lwi	r19, r1, 84
    3888:	eac10058 	lwi	r22, r1, 88
    388c:	eae1005c 	lwi	r23, r1, 92
    3890:	eb010060 	lwi	r24, r1, 96
    3894:	eb210064 	lwi	r25, r1, 100
    3898:	eb410068 	lwi	r26, r1, 104
    389c:	eb61006c 	lwi	r27, r1, 108
    38a0:	b60f0008 	rtsd	r15, 8
    38a4:	30210070 	addik	r1, r1, 112
    38a8:	16650000 	rsubk	r19, r5, r0
    38ac:	b810fe94 	brid	-364		// 3740
    38b0:	33600001 	addik	r27, r0, 1

000038b4 <xil_printf>:
    38b4:	f8a10004 	swi	r5, r1, 4
    38b8:	f8c10008 	swi	r6, r1, 8
    38bc:	f8e1000c 	swi	r7, r1, 12
    38c0:	f9010010 	swi	r8, r1, 16
    38c4:	f9210014 	swi	r9, r1, 20
    38c8:	f9410018 	swi	r10, r1, 24
    38cc:	3021ffac 	addik	r1, r1, -84
    38d0:	fac1003c 	swi	r22, r1, 60
    38d4:	fb010044 	swi	r24, r1, 68
    38d8:	f9e10000 	swi	r15, r1, 0
    38dc:	fa610038 	swi	r19, r1, 56
    38e0:	fae10040 	swi	r23, r1, 64
    38e4:	fb210048 	swi	r25, r1, 72
    38e8:	fb41004c 	swi	r26, r1, 76
    38ec:	fb610050 	swi	r27, r1, 80
    38f0:	12c50000 	addk	r22, r5, r0
    38f4:	e0a50000 	lbui	r5, r5, 0
    38f8:	90a50060 	sext8	r5, r5
    38fc:	be050120 	beqid	r5, 288		// 3a1c
    3900:	3301005c 	addik	r24, r1, 92
    3904:	33400053 	addik	r26, r0, 83
    3908:	b8100024 	brid	36		// 392c
    390c:	33600068 	addik	r27, r0, 104
    3910:	b0000000 	imm	0
    3914:	b9f40498 	brlid	r15, 1176	// 3dac <outbyte>
    3918:	12760000 	addk	r19, r22, r0
    391c:	e0b30001 	lbui	r5, r19, 1
    3920:	90a50060 	sext8	r5, r5
    3924:	be0500f8 	beqid	r5, 248		// 3a1c
    3928:	32d30001 	addik	r22, r19, 1
    392c:	a8650025 	xori	r3, r5, 37
    3930:	be23ffe0 	bneid	r3, -32		// 3910
    3934:	12e30000 	addk	r23, r3, r0
    3938:	e0b60001 	lbui	r5, r22, 1
    393c:	b0000000 	imm	0
    3940:	e880e50c 	lwi	r4, r0, -6900	// e50c <__ctype_ptr__>
    3944:	f861002c 	swi	r3, r1, 44
    3948:	f8610030 	swi	r3, r1, 48
    394c:	30600020 	addik	r3, r0, 32	// 20 <_vector_hw_exception>
    3950:	90a50060 	sext8	r5, r5
    3954:	f0610028 	sbi	r3, r1, 40
    3958:	30607fff 	addik	r3, r0, 32767
    395c:	f8610024 	swi	r3, r1, 36
    3960:	10642800 	addk	r3, r4, r5
    3964:	e0630001 	lbui	r3, r3, 1
    3968:	a4c30004 	andi	r6, r3, 4
    396c:	be06005c 	beqid	r6, 92		// 39c8
    3970:	32760001 	addik	r19, r22, 1
    3974:	be1702b0 	beqid	r23, 688		// 3c24
    3978:	a8650030 	xori	r3, r5, 48
    397c:	10c00000 	addk	r6, r0, r0
    3980:	e0730001 	lbui	r3, r19, 1
    3984:	3105ffd0 	addik	r8, r5, -48
    3988:	61260004 	muli	r9, r6, 4
    398c:	90a30060 	sext8	r5, r3
    3990:	10642800 	addk	r3, r4, r5
    3994:	e0e30001 	lbui	r7, r3, 1
    3998:	10c93000 	addk	r6, r9, r6
    399c:	10c63000 	addk	r6, r6, r6
    39a0:	a4e70004 	andi	r7, r7, 4
    39a4:	10c64000 	addk	r6, r6, r8
    39a8:	be27ffd8 	bneid	r7, -40		// 3980
    39ac:	32730001 	addik	r19, r19, 1
    39b0:	f8c10024 	swi	r6, r1, 36
    39b4:	32d3ffff 	addik	r22, r19, -1
    39b8:	e0630001 	lbui	r3, r3, 1
    39bc:	a4c30004 	andi	r6, r3, 4
    39c0:	be26ffb4 	bneid	r6, -76		// 3974
    39c4:	32760001 	addik	r19, r22, 1
    39c8:	a4630003 	andi	r3, r3, 3
    39cc:	a8c30001 	xori	r6, r3, 1
    39d0:	be0602c4 	beqid	r6, 708		// 3c94
    39d4:	10650000 	addk	r3, r5, r0
    39d8:	3063ffdb 	addik	r3, r3, -37
    39dc:	14c3d003 	cmpu	r6, r3, r26
    39e0:	be46ff3c 	bltid	r6, -196		// 391c
    39e4:	60630004 	muli	r3, r3, 4
    39e8:	b0000000 	imm	0
    39ec:	3063d798 	addik	r3, r3, -10344
    39f0:	e8630000 	lwi	r3, r3, 0
    39f4:	98081800 	bra	r3
    39f8:	e8b80000 	lwi	r5, r24, 0
    39fc:	30c00010 	addik	r6, r0, 16	// 10 <_vector_interrupt>
    3a00:	30e1001c 	addik	r7, r1, 28
